
nios01.elf:     file format elf32-littlenios2
nios01.elf
architecture: nios2:r1, flags 0x00000112:
EXEC_P, HAS_SYMS, D_PAGED
start address 0x08000220

Program Header:
    LOAD off    0x00001020 vaddr 0x10080020 paddr 0x08000000 align 2**12
         filesz 0x00000220 memsz 0x00000220 flags r-x
    LOAD off    0x00002220 vaddr 0x08000220 paddr 0x08000220 align 2**12
         filesz 0x00012828 memsz 0x00012828 flags r-x
    LOAD off    0x00014a48 vaddr 0x08012a48 paddr 0x0801455c align 2**12
         filesz 0x00001b14 memsz 0x00001b14 flags rw-
    LOAD off    0x00017070 vaddr 0x08016070 paddr 0x08016070 align 2**12
         filesz 0x00000000 memsz 0x00000164 flags rw-
    LOAD off    0x00017000 vaddr 0x10080000 paddr 0x10080000 align 2**12
         filesz 0x00000020 memsz 0x00000020 flags r-x

Sections:
Idx Name          Size      VMA       LMA       File off  Algn
  0 .entry        00000020  10080000  10080000  00017000  2**5
                  CONTENTS, ALLOC, LOAD, READONLY, CODE
  1 .exceptions   00000220  10080020  08000000  00001020  2**2
                  CONTENTS, ALLOC, LOAD, READONLY, CODE
  2 .text         0001206c  08000220  08000220  00002220  2**2
                  CONTENTS, ALLOC, LOAD, READONLY, CODE
  3 .rodata       000007bc  0801228c  0801228c  0001428c  2**2
                  CONTENTS, ALLOC, LOAD, READONLY, DATA
  4 .rwdata       00001b14  08012a48  0801455c  00014a48  2**2
                  CONTENTS, ALLOC, LOAD, DATA, SMALL_DATA
  5 .bss          00000164  08016070  08016070  00017070  2**2
                  ALLOC, SMALL_DATA
  6 .sdram_control 00000000  080161d4  080161d4  00017020  2**0
                  CONTENTS
  7 .onchip_memory2_0 00000000  10080240  10080240  00017020  2**0
                  CONTENTS
  8 .comment      00000023  00000000  00000000  00017020  2**0
                  CONTENTS, READONLY
  9 .debug_aranges 00000d30  00000000  00000000  00017048  2**3
                  CONTENTS, READONLY, DEBUGGING
 10 .debug_info   000259b9  00000000  00000000  00017d78  2**0
                  CONTENTS, READONLY, DEBUGGING
 11 .debug_abbrev 00009447  00000000  00000000  0003d731  2**0
                  CONTENTS, READONLY, DEBUGGING
 12 .debug_line   0000b73b  00000000  00000000  00046b78  2**0
                  CONTENTS, READONLY, DEBUGGING
 13 .debug_frame  000024d4  00000000  00000000  000522b4  2**2
                  CONTENTS, READONLY, DEBUGGING
 14 .debug_str    00003a3a  00000000  00000000  00054788  2**0
                  CONTENTS, READONLY, DEBUGGING
 15 .debug_loc    00016f57  00000000  00000000  000581c2  2**0
                  CONTENTS, READONLY, DEBUGGING
 16 .debug_alt_sim_info 00000030  00000000  00000000  0006f11c  2**2
                  CONTENTS, READONLY, DEBUGGING
 17 .debug_ranges 00001380  00000000  00000000  0006f150  2**3
                  CONTENTS, READONLY, DEBUGGING
 18 .thread_model 00000003  00000000  00000000  00073bb6  2**0
                  CONTENTS, READONLY
 19 .cpu          00000005  00000000  00000000  00073bb9  2**0
                  CONTENTS, READONLY
 20 .qsys         00000001  00000000  00000000  00073bbe  2**0
                  CONTENTS, READONLY
 21 .simulation_enabled 00000001  00000000  00000000  00073bbf  2**0
                  CONTENTS, READONLY
 22 .sysid_hash   00000004  00000000  00000000  00073bc0  2**0
                  CONTENTS, READONLY
 23 .sysid_base   00000004  00000000  00000000  00073bc4  2**0
                  CONTENTS, READONLY
 24 .sysid_time   00000004  00000000  00000000  00073bc8  2**0
                  CONTENTS, READONLY
 25 .stderr_dev   0000000b  00000000  00000000  00073bcc  2**0
                  CONTENTS, READONLY
 26 .stdin_dev    0000000b  00000000  00000000  00073bd7  2**0
                  CONTENTS, READONLY
 27 .stdout_dev   0000000b  00000000  00000000  00073be2  2**0
                  CONTENTS, READONLY
 28 .sopc_system_name 00000007  00000000  00000000  00073bed  2**0
                  CONTENTS, READONLY
 29 .quartus_project_dir 0000003a  00000000  00000000  00073bf4  2**0
                  CONTENTS, READONLY
 30 .sopcinfo     0007c74e  00000000  00000000  00073c2e  2**0
                  CONTENTS, READONLY
SYMBOL TABLE:
10080000 l    d  .entry	00000000 .entry
10080020 l    d  .exceptions	00000000 .exceptions
08000220 l    d  .text	00000000 .text
0801228c l    d  .rodata	00000000 .rodata
08012a48 l    d  .rwdata	00000000 .rwdata
08016070 l    d  .bss	00000000 .bss
080161d4 l    d  .sdram_control	00000000 .sdram_control
10080240 l    d  .onchip_memory2_0	00000000 .onchip_memory2_0
00000000 l    d  .comment	00000000 .comment
00000000 l    d  .debug_aranges	00000000 .debug_aranges
00000000 l    d  .debug_info	00000000 .debug_info
00000000 l    d  .debug_abbrev	00000000 .debug_abbrev
00000000 l    d  .debug_line	00000000 .debug_line
00000000 l    d  .debug_frame	00000000 .debug_frame
00000000 l    d  .debug_str	00000000 .debug_str
00000000 l    d  .debug_loc	00000000 .debug_loc
00000000 l    d  .debug_alt_sim_info	00000000 .debug_alt_sim_info
00000000 l    d  .debug_ranges	00000000 .debug_ranges
00000000 l    df *ABS*	00000000 ../nios01_bsp//obj/HAL/src/crt0.o
08000268 l       .text	00000000 alt_after_alt_main
00000000 l    df *ABS*	00000000 alt_irq_handler.c
00000000 l    df *ABS*	00000000 alt_instruction_exception_entry.c
00000000 l    df *ABS*	00000000 hello_world.c
080144f4 l     O .rwdata	00000004 NUM_VECTOR
080144f8 l     O .rwdata	00000004 NUM_DIM
080144fc l     O .rwdata	00000004 NUM_DIM_WRITE
08014500 l     O .rwdata	00000004 NUM_DIM_SHRINK
08014504 l     O .rwdata	00000004 bit_mask
08014508 l     O .rwdata	00000004 LABEL_NUM
0801450c l     O .rwdata	00000004 FC_UNITS
08014510 l     O .rwdata	00000004 FIRST_CONV
08014514 l     O .rwdata	00000004 SECOND_CONV
08014518 l     O .rwdata	00000004 DATA_SHAPE
00000000 l    df *ABS*	00000000 divdf3.c
00000000 l    df *ABS*	00000000 floatsidf.c
00000000 l    df *ABS*	00000000 floatunsidf.c
00000000 l    df *ABS*	00000000 libgcc2.c
00000000 l    df *ABS*	00000000 lib2-divmod.c
08003d5c l     F .text	0000006c udivmodsi4
00000000 l    df *ABS*	00000000 libgcc2.c
00000000 l    df *ABS*	00000000 memset.c
00000000 l    df *ABS*	00000000 printf.c
00000000 l    df *ABS*	00000000 putchar.c
00000000 l    df *ABS*	00000000 puts.c
00000000 l    df *ABS*	00000000 strlen.c
00000000 l    df *ABS*	00000000 vfprintf.c
0801288e l     O .rodata	00000010 zeroes.4181
0801289e l     O .rodata	00000010 blanks.4180
00000000 l    df *ABS*	00000000 wsetup.c
00000000 l    df *ABS*	00000000 dtoa.c
080062e8 l     F .text	00000200 quorem
00000000 l    df *ABS*	00000000 fflush.c
00000000 l    df *ABS*	00000000 findfp.c
08007e68 l     F .text	00000008 __fp_lock
08007e70 l     F .text	00000008 __fp_unlock
08007e84 l     F .text	000001a0 __sinit.part.1
00000000 l    df *ABS*	00000000 mallocr.c
00000000 l    df *ABS*	00000000 fvwrite.c
00000000 l    df *ABS*	00000000 fwalk.c
00000000 l    df *ABS*	00000000 impure.c
08012a48 l     O .rwdata	00000424 impure_data
00000000 l    df *ABS*	00000000 locale.c
08012e8c l     O .rwdata	00000020 lc_ctype_charset
08012e6c l     O .rwdata	00000020 lc_message_charset
08012eac l     O .rwdata	00000038 lconv
00000000 l    df *ABS*	00000000 makebuf.c
00000000 l    df *ABS*	00000000 mallocr.c
00000000 l    df *ABS*	00000000 memchr.c
00000000 l    df *ABS*	00000000 memcpy.c
00000000 l    df *ABS*	00000000 memmove.c
00000000 l    df *ABS*	00000000 mprec.c
080128d0 l     O .rodata	0000000c p05.2678
00000000 l    df *ABS*	00000000 putc.c
00000000 l    df *ABS*	00000000 mallocr.c
00000000 l    df *ABS*	00000000 s_fpclassify.c
00000000 l    df *ABS*	00000000 sbrkr.c
00000000 l    df *ABS*	00000000 stdio.c
00000000 l    df *ABS*	00000000 strcmp.c
00000000 l    df *ABS*	00000000 vfprintf.c
0800b328 l     F .text	000000fc __sprint_r.part.0
08012a04 l     O .rodata	00000010 blanks.4125
080129f4 l     O .rodata	00000010 zeroes.4126
00000000 l    df *ABS*	00000000 wbuf.c
00000000 l    df *ABS*	00000000 writer.c
00000000 l    df *ABS*	00000000 closer.c
00000000 l    df *ABS*	00000000 mallocr.c
00000000 l    df *ABS*	00000000 fclose.c
00000000 l    df *ABS*	00000000 fputwc.c
00000000 l    df *ABS*	00000000 fstatr.c
00000000 l    df *ABS*	00000000 int_errno.c
00000000 l    df *ABS*	00000000 isattyr.c
00000000 l    df *ABS*	00000000 lseekr.c
00000000 l    df *ABS*	00000000 readr.c
00000000 l    df *ABS*	00000000 wcrtomb.c
00000000 l    df *ABS*	00000000 wctomb_r.c
00000000 l    df *ABS*	00000000 libgcc2.c
00000000 l    df *ABS*	00000000 libgcc2.c
00000000 l    df *ABS*	00000000 adddf3.c
00000000 l    df *ABS*	00000000 eqdf2.c
00000000 l    df *ABS*	00000000 gedf2.c
00000000 l    df *ABS*	00000000 ledf2.c
00000000 l    df *ABS*	00000000 muldf3.c
00000000 l    df *ABS*	00000000 subdf3.c
00000000 l    df *ABS*	00000000 fixdfsi.c
00000000 l    df *ABS*	00000000 alt_close.c
0800f7a0 l     F .text	00000050 alt_get_errno
00000000 l    df *ABS*	00000000 alt_dev.c
0800f8c0 l     F .text	0000002c alt_dev_null_write
00000000 l    df *ABS*	00000000 alt_errno.c
00000000 l    df *ABS*	00000000 alt_fstat.c
0800f8ec l     F .text	00000050 alt_get_errno
00000000 l    df *ABS*	00000000 alt_isatty.c
0800f9ec l     F .text	00000050 alt_get_errno
00000000 l    df *ABS*	00000000 alt_load.c
0800fae0 l     F .text	00000064 alt_load_section
00000000 l    df *ABS*	00000000 alt_lseek.c
0800fbc4 l     F .text	00000050 alt_get_errno
00000000 l    df *ABS*	00000000 alt_main.c
00000000 l    df *ABS*	00000000 alt_malloc_lock.c
00000000 l    df *ABS*	00000000 alt_read.c
0800fda0 l     F .text	00000050 alt_get_errno
00000000 l    df *ABS*	00000000 alt_release_fd.c
00000000 l    df *ABS*	00000000 alt_sbrk.c
0801454c l     O .rwdata	00000004 heap_end
00000000 l    df *ABS*	00000000 alt_write.c
0800fffc l     F .text	00000050 alt_get_errno
00000000 l    df *ABS*	00000000 altera_up_avalon_rs232.c
00000000 l    df *ABS*	00000000 alt_sys_init.c
080104d0 l     F .text	00000038 alt_dev_reg
08013494 l     O .rwdata	00001060 jtag_uart_0
00000000 l    df *ABS*	00000000 altera_avalon_jtag_uart_fd.c
00000000 l    df *ABS*	00000000 altera_avalon_jtag_uart_init.c
080107ac l     F .text	00000204 altera_avalon_jtag_uart_irq
080109b0 l     F .text	000000a8 altera_avalon_jtag_uart_timeout
00000000 l    df *ABS*	00000000 altera_avalon_jtag_uart_ioctl.c
00000000 l    df *ABS*	00000000 altera_avalon_jtag_uart_read.c
00000000 l    df *ABS*	00000000 altera_avalon_jtag_uart_write.c
00000000 l    df *ABS*	00000000 alt_alarm_start.c
00000000 l    df *ABS*	00000000 alt_dcache_flush_all.c
00000000 l    df *ABS*	00000000 alt_dev_llist_insert.c
08011154 l     F .text	00000050 alt_get_errno
00000000 l    df *ABS*	00000000 alt_do_ctors.c
00000000 l    df *ABS*	00000000 alt_do_dtors.c
00000000 l    df *ABS*	00000000 alt_find_dev.c
00000000 l    df *ABS*	00000000 alt_icache_flush_all.c
00000000 l    df *ABS*	00000000 alt_iic.c
00000000 l    df *ABS*	00000000 alt_iic_isr_register.c
00000000 l    df *ABS*	00000000 alt_io_redirect.c
08011690 l     F .text	000000c0 alt_open_fd
00000000 l    df *ABS*	00000000 alt_irq_vars.c
00000000 l    df *ABS*	00000000 alt_open.c
080117c8 l     F .text	00000050 alt_get_errno
08011818 l     F .text	000000cc alt_file_locked
00000000 l    df *ABS*	00000000 alt_tick.c
00000000 l    df *ABS*	00000000 altera_nios2_gen2_irq.c
00000000 l    df *ABS*	00000000 alt_find_file.c
00000000 l    df *ABS*	00000000 alt_get_fd.c
00000000 l    df *ABS*	00000000 alt_icache_flush.c
00000000 l    df *ABS*	00000000 atexit.c
00000000 l    df *ABS*	00000000 exit.c
00000000 l    df *ABS*	00000000 memcmp.c
00000000 l    df *ABS*	00000000 __atexit.c
00000000 l    df *ABS*	00000000 __call_atexit.c
00000000 l    df *ABS*	00000000 alt_exit.c
080160a8 g     O .bss	00000004 alt_instruction_exception_handler
0800401c g     F .text	00000018 putchar
0800a800 g     F .text	00000074 _mprec_log10
0800a8ec g     F .text	0000008c __any_on
0800cde8 g     F .text	00000054 _isatty_r
080128dc g     O .rodata	00000028 __mprec_tinytens
0800fce8 g     F .text	00000078 alt_main
08004034 g     F .text	000000b8 _puts_r
080160d4 g     O .bss	00000100 alt_irq
0800ce3c g     F .text	0000005c _lseek_r
0801455c g       *ABS*	00000000 __flash_rwdata_start
0800e4e0 g     F .text	00000084 .hidden __eqdf2
0800026c g     F .text	0000006c transform
080161d4 g       *ABS*	00000000 __alt_heap_start
08003fd8 g     F .text	0000003c printf
0800cef4 g     F .text	0000009c _wcrtomb_r
0800b220 g     F .text	0000005c __sseek
080081b8 g     F .text	00000010 __sinit
0800c7bc g     F .text	00000154 __swbuf_r
08008c30 g     F .text	0000007c _setlocale_r
08008024 g     F .text	00000064 __sfmoreglue
0800fd80 g     F .text	00000020 __malloc_unlock
0801036c g     F .text	00000090 alt_up_rs232_read_fd
08009890 g     F .text	0000015c memmove
080081a0 g     F .text	00000018 _cleanup
080099ec g     F .text	000000a8 _Balloc
08000af0 g     F .text	00000420 mat_mul
0800e564 g     F .text	000000e0 .hidden __gtdf2
08011bd8 g     F .text	00000020 altera_nios2_gen2_irq_init
00000000  w      *UND*	00000000 __errno
10080000 g     F .entry	0000001c __reset
08000000 g       *ABS*	00000000 __flash_exceptions_start
0800cd90 g     F .text	00000058 _fstat_r
0801608c g     O .bss	00000004 errno
0800b19c g     F .text	00000008 __seofread
080022ac g     F .text	000009a4 fully_connencted
08016094 g     O .bss	00000004 alt_argv
0801c4f4 g       *ABS*	00000000 _gp
080004c8 g     F .text	000000a0 transform_32to8
08013314 g     O .rwdata	00000180 alt_fd_list
08004014 g     F .text	00000008 _putchar_r
08011300 g     F .text	00000090 alt_find_dev
08009758 g     F .text	00000138 memcpy
08007e78 g     F .text	0000000c _cleanup_r
08003b84 g     F .text	000000d0 .hidden __floatsidf
08011750 g     F .text	00000078 alt_io_redirect
0800e644 g     F .text	000000e0 .hidden __ltdf2
0801228c g       *ABS*	00000000 __DTOR_END__
080102f8 g     F .text	00000074 alt_up_rs232_read_data
080040ec g     F .text	00000014 puts
08011e4c g     F .text	0000009c alt_exception_cause_generated_bad_addr
0800b080 g     F .text	00000074 __fpclassifyd
0800a75c g     F .text	000000a4 __ratio
0800c798 g     F .text	00000024 __vfiprintf_internal
08010bac g     F .text	0000020c altera_avalon_jtag_uart_read
080009b0 g     F .text	00000140 matrix_to_imageCube
00000000  w      *UND*	00000000 malloc
08003fac g     F .text	0000002c _printf_r
10080000 g       *ABS*	00000000 __alt_mem_onchip_memory2_0
08003e78 g     F .text	00000008 .hidden __udivsi3
0800fa3c g     F .text	000000a4 isatty
0801292c g     O .rodata	000000c8 __mprec_tens
08008cac g     F .text	0000000c __locale_charset
08011dc0 g     F .text	0000008c alt_icache_flush
08016088 g     O .bss	00000004 __malloc_top_pad
08001b3c g     F .text	000001cc mean_pooling
08002c50 g     F .text	000001ac printResult
08014524 g     O .rwdata	00000004 __mb_cur_max
080018f8 g     F .text	00000244 max_pooling
08008cdc g     F .text	0000000c _localeconv_r
08009dec g     F .text	0000003c __i2b
0800861c g     F .text	000004a4 __sfvwrite_r
0800b0f4 g     F .text	00000054 _sbrk_r
08000f10 g     F .text	000009e8 conv
0800ce98 g     F .text	0000005c _read_r
08014544 g     O .rwdata	00000004 alt_max_fd
08010274 g     F .text	00000044 alt_up_rs232_check_parity
0800caa0 g     F .text	00000100 _fclose_r
08007e38 g     F .text	00000030 fflush
08016084 g     O .bss	00000004 __malloc_max_sbrked_mem
0800dc44 g     F .text	0000089c .hidden __adddf3
0800a504 g     F .text	0000011c __b2d
0800d6b4 g     F .text	00000590 .hidden __umoddi3
0800fc14 g     F .text	000000d4 lseek
08000000 g       *ABS*	00000000 __alt_mem_sdram_control
08016070 g     O .bss	00000001 par
0801451c g     O .rwdata	00000004 _global_impure_ptr
0800aae0 g     F .text	000005a0 _realloc_r
080161d4 g       *ABS*	00000000 __bss_end
080115a0 g     F .text	000000f0 alt_iic_isr_register
08011ad4 g     F .text	00000104 alt_tick
0800d0f4 g     F .text	000005c0 .hidden __udivdi3
0800cbb4 g     F .text	00000184 _fputwc_r
08012904 g     O .rodata	00000028 __mprec_bigtens
08009bd0 g     F .text	00000104 __s2b
08003c54 g     F .text	000000a4 .hidden __floatunsidf
08000670 g     F .text	00000080 transform_8to32
0800a2ac g     F .text	00000060 __mcmp
080081d8 g     F .text	00000018 __fp_lock_all
08011554 g     F .text	0000004c alt_ic_irq_enabled
08011a3c g     F .text	00000098 alt_alarm_stop
0801609c g     O .bss	00000004 alt_irq_active
08000954 g     F .text	0000005c truncation
100800fc g     F .exceptions	000000d0 alt_irq_handler
080132ec g     O .rwdata	00000028 alt_dev_null
08000800 g     F .text	00000154 flatten_matrix
08011110 g     F .text	00000044 alt_dcache_flush_all
08009cd4 g     F .text	00000068 __hi0bits
0800f718 g     F .text	00000088 .hidden __fixdfsi
0801455c g       *ABS*	00000000 __ram_rwdata_end
0801453c g     O .rwdata	00000008 alt_dev_list
0801004c g     F .text	000000f8 write
0800a978 g     F .text	000000a0 _putc_r
08012a48 g       *ABS*	00000000 __ram_rodata_end
0800f93c g     F .text	000000b0 fstat
080103fc g     F .text	00000094 alt_up_rs232_write_fd
0800e644 g     F .text	000000e0 .hidden __ledf2
0800a024 g     F .text	00000140 __pow5mult
0800b43c g     F .text	0000135c ___vfiprintf_internal_r
0801607c g     O .bss	00000004 __nlocale_changed
08003e80 g     F .text	00000008 .hidden __umodsi3
08001eb4 g     F .text	0000030c conv_interface_2
080161d4 g       *ABS*	00000000 end
080106e8 g     F .text	000000c4 altera_avalon_jtag_uart_init
100801cc g     F .exceptions	00000074 alt_instruction_exception_entry
0801228c g       *ABS*	00000000 __CTOR_LIST__
10000000 g       *ABS*	00000000 __alt_stack_pointer
08003cf8 g     F .text	00000064 .hidden __clzsi2
08010db8 g     F .text	00000218 altera_avalon_jtag_uart_write
08000568 g     F .text	00000108 printSignBinary
080081c8 g     F .text	00000004 __sfp_lock_acquire
08009670 g     F .text	000000e8 memchr
08004198 g     F .text	00001ffc ___vfprintf_internal_r
0800832c g     F .text	000002f0 _free_r
08008cb8 g     F .text	00000010 __locale_mb_cur_max
080120c4 g     F .text	00000194 __call_exitprocs
08016078 g     O .bss	00000004 __mlocale_changed
08014528 g     O .rwdata	00000004 __malloc_sbrk_base
08000220 g     F .text	0000004c _start
080160a0 g     O .bss	00000004 _alt_tick_rate
0800a164 g     F .text	00000148 __lshift
080160a4 g     O .bss	00000004 _alt_nticks
0800fdf0 g     F .text	000000fc read
0801053c g     F .text	00000048 alt_sys_init
08011fb0 g     F .text	00000114 __register_exitproc
08010238 g     F .text	0000003c alt_up_rs232_get_available_space_in_write_FIFO
08009e28 g     F .text	000001fc __multiply
08010a58 g     F .text	00000068 altera_avalon_jtag_uart_close
08012a48 g       *ABS*	00000000 __ram_rwdata_start
0801228c g       *ABS*	00000000 __ram_rodata_start
080160ac g     O .bss	00000028 __malloc_current_mallinfo
0800a620 g     F .text	0000013c __d2b
08010584 g     F .text	00000060 altera_avalon_jtag_uart_read_fd
08011d0c g     F .text	000000b4 alt_get_fd
0800c988 g     F .text	00000054 _close_r
080003a8 g     F .text	00000120 printBinary
08011f34 g     F .text	0000007c memcmp
08010644 g     F .text	00000050 altera_avalon_jtag_uart_close_fd
080161d4 g       *ABS*	00000000 __alt_stack_base
08010694 g     F .text	00000054 altera_avalon_jtag_uart_ioctl_fd
080061b8 g     F .text	00000130 __swsetup_r
080032b8 g     F .text	000008cc .hidden __divdf3
08008088 g     F .text	00000118 __sfp
0800a874 g     F .text	00000078 __copybits
08012ee4 g     O .rwdata	00000408 __malloc_av_
080081d4 g     F .text	00000004 __sinit_lock_release
0800e724 g     F .text	00000724 .hidden __muldf3
0800b148 g     F .text	00000054 __sread
0801019c g     F .text	0000005c alt_up_rs232_disable_read_interrupt
08011bf8 g     F .text	00000114 alt_find_file
080111a4 g     F .text	000000a4 alt_dev_llist_insert
0800fd60 g     F .text	00000020 __malloc_lock
0800ff4c g     F .text	000000b0 sbrk
08007c10 g     F .text	00000228 _fflush_r
0800c9dc g     F .text	000000c4 _calloc_r
08016070 g       *ABS*	00000000 __bss_start
08003e88 g     F .text	00000124 memset
08002dfc g     F .text	000004bc main
08016098 g     O .bss	00000004 alt_envp
08016080 g     O .bss	00000004 __malloc_max_total_mem
080105e4 g     F .text	00000060 altera_avalon_jtag_uart_write_fd
0800c910 g     F .text	0000001c __swbuf
0800b27c g     F .text	00000008 __sclose
10000000 g       *ABS*	00000000 __alt_heap_limit
0800cba0 g     F .text	00000014 fclose
080064e8 g     F .text	00001728 _dtoa_r
08008ec8 g     F .text	000007a8 _malloc_r
0800d068 g     F .text	00000030 __ascii_wctomb
08014548 g     O .rwdata	00000004 alt_errno
08008ac0 g     F .text	000000b8 _fwalk
0800aa18 g     F .text	000000c8 putc
08003dc8 g     F .text	00000054 .hidden __divsi3
08008208 g     F .text	00000124 _malloc_trim_r
0801228c g       *ABS*	00000000 __CTOR_END__
0800b284 g     F .text	000000a4 strcmp
0801228c g       *ABS*	00000000 __flash_rodata_start
0801228c g       *ABS*	00000000 __DTOR_LIST__
08010490 g     F .text	00000040 alt_up_rs232_open_dev
0800e4e0 g     F .text	00000084 .hidden __nedf2
08010508 g     F .text	00000034 alt_irq_init
0800feec g     F .text	00000060 alt_release_fd
08012748 g     O .rodata	00000100 .hidden __clz_tab
08016074 g     O .bss	00000004 _PathLocale
08011ee8 g     F .text	00000014 atexit
0800c92c g     F .text	0000005c _write_r
08008ce8 g     F .text	0000001c setlocale
08014520 g     O .rwdata	00000004 _impure_ptr
08016090 g     O .bss	00000004 alt_argc
080112a4 g     F .text	0000005c _do_dtors
08008cd4 g     F .text	00000008 __locale_cjk_lang
10080020 g       .exceptions	00000000 alt_irq_entry
0800a4a4 g     F .text	00000060 __ulp
080081f0 g     F .text	00000018 __fp_unlock_all
08014534 g     O .rwdata	00000008 alt_fs_list
08010144 g     F .text	00000058 alt_up_rs232_enable_read_interrupt
080102b8 g     F .text	00000040 alt_up_rs232_write_data
10080020 g       *ABS*	00000000 __ram_exceptions_start
08008d04 g     F .text	0000000c localeconv
080113c0 g     F .text	00000050 alt_ic_isr_register
08001d08 g     F .text	000001ac conv_interface_1
0801455c g       *ABS*	00000000 _edata
080161d4 g       *ABS*	00000000 _end
10080240 g       *ABS*	00000000 __ram_exceptions_end
08010ac0 g     F .text	000000ec altera_avalon_jtag_uart_ioctl
080114b0 g     F .text	000000a4 alt_ic_irq_disable
0800b1a4 g     F .text	0000007c __swrite
0801452c g     O .rwdata	00000004 __malloc_trim_threshold
08008cc8 g     F .text	0000000c __locale_msgcharset
08011efc g     F .text	00000038 exit
08008b78 g     F .text	000000b8 _fwalk_reent
0800a30c g     F .text	00000198 __mdiff
08003e1c g     F .text	0000005c .hidden __modsi3
10000000 g       *ABS*	00000000 __alt_data_end
10080020 g     F .exceptions	00000000 alt_exception
080081cc g     F .text	00000004 __sfp_lock_release
08012258 g     F .text	00000034 _exit
08010fd0 g     F .text	00000140 alt_alarm_start
08008d10 g     F .text	000001b8 __smakebuf_r
08004100 g     F .text	00000098 strlen
080118e4 g     F .text	00000158 open
0800e564 g     F .text	000000e0 .hidden __gedf2
080006f0 g     F .text	00000110 printMatrix
08014530 g     O .rwdata	00000004 __wctomb
0800b424 g     F .text	00000018 __sprint_r
08011390 g     F .text	00000030 alt_icache_flush_all
08014550 g     O .rwdata	00000004 alt_priority_mask
08011410 g     F .text	000000a0 alt_ic_irq_enable
08006194 g     F .text	00000024 __vfprintf_internal
0800d098 g     F .text	0000005c _wctomb_r
0800ee48 g     F .text	000008d0 .hidden __subdf3
08009d3c g     F .text	000000b0 __lo0bits
080021c0 g     F .text	000000ec total_conv
08014554 g     O .rwdata	00000008 alt_alarm_list
08011248 g     F .text	0000005c _do_ctors
080101f8 g     F .text	00000040 alt_up_rs232_get_used_space_in_read_FIFO
0800cf90 g     F .text	000000d8 wcrtomb
0800f7f0 g     F .text	000000d0 close
0800fb44 g     F .text	00000080 alt_load
0800cd38 g     F .text	00000058 fputwc
00000000  w      *UND*	00000000 free
080081d0 g     F .text	00000004 __sinit_lock_acquire
08009abc g     F .text	00000114 __multadd
08009a94 g     F .text	00000028 _Bfree
080002d8 g     F .text	000000d0 read_event



Disassembly of section .entry:

10080000 <__reset>:
#if NIOS2_ICACHE_SIZE > 0 && defined(ALT_ALLOW_CODE_AT_RESET) && (!defined(ALT_SIM_OPTIMIZE) || defined(NIOS2_ECC_PRESENT))
    /* Assume the instruction cache size is always a power of two. */
#if NIOS2_ICACHE_SIZE > 0x8000
    movhi r2, %hi(NIOS2_ICACHE_SIZE)
#else
    movui r2, NIOS2_ICACHE_SIZE
10080000:	00840014 	movui	r2,4096
#endif

0:
    initi r2
10080004:	1001483a 	initi	r2
    addi r2, r2, -NIOS2_ICACHE_LINE_SIZE
10080008:	10bff804 	addi	r2,r2,-32
    bgt r2, zero, 0b
1008000c:	00bffd16 	blt	zero,r2,10080004 <__ram_exceptions_end+0xfffffdc4>
 * Jump to the _start entry point in the .text section if reset code
 * is allowed or if optimizing for RTL simulation.
 */
#if defined(ALT_ALLOW_CODE_AT_RESET) || defined(ALT_SIM_OPTIMIZE)
    /* Jump to the _start entry point in the .text section. */
    movhi r1, %hi(_start)
10080010:	00420034 	movhi	at,2048
    ori r1, r1, %lo(_start)
10080014:	08408814 	ori	at,at,544
    jmp r1
10080018:	0800683a 	jmp	at
1008001c:	00000000 	call	10000000 <__alt_data_end>

Disassembly of section .exceptions:

10080020 <alt_exception>:

#else /* ALT_EXCEPTION_STACK disabled */
        /* 
         * Reserve space on normal stack for registers about to be pushed.
         */
        addi  sp, sp, -76
10080020:	deffed04 	addi	sp,sp,-76
         * documentation for details).
         *
         * Leave a gap in the stack frame at 4(sp) for the muldiv handler to
         * store zero into.
         */
        stw   ra,  0(sp)
10080024:	dfc00015 	stw	ra,0(sp)
        stw   r1,   8(sp)
10080028:	d8400215 	stw	at,8(sp)
        stw   r2,  12(sp)
1008002c:	d8800315 	stw	r2,12(sp)
        stw   r3,  16(sp)
10080030:	d8c00415 	stw	r3,16(sp)
        stw   r4,  20(sp)
10080034:	d9000515 	stw	r4,20(sp)
        stw   r5,  24(sp)
10080038:	d9400615 	stw	r5,24(sp)
        stw   r6,  28(sp)
1008003c:	d9800715 	stw	r6,28(sp)
        stw   r7,  32(sp)
10080040:	d9c00815 	stw	r7,32(sp)
        rdctl r5, estatus   /* Read early to avoid usage stall */
10080044:	000b307a 	rdctl	r5,estatus
        stw   r8,  36(sp)
10080048:	da000915 	stw	r8,36(sp)
        stw   r9,  40(sp)
1008004c:	da400a15 	stw	r9,40(sp)
        stw   r10, 44(sp)
10080050:	da800b15 	stw	r10,44(sp)
        stw   r11, 48(sp)
10080054:	dac00c15 	stw	r11,48(sp)
        stw   r12, 52(sp)
10080058:	db000d15 	stw	r12,52(sp)
        stw   r13, 56(sp)
1008005c:	db400e15 	stw	r13,56(sp)
        stw   r14, 60(sp)
10080060:	db800f15 	stw	r14,60(sp)
        stw   r15, 64(sp)
10080064:	dbc01015 	stw	r15,64(sp)
        /*
         * ea-4 contains the address of the instruction being executed
         * when the exception occured. For interrupt exceptions, we will
         * will be re-issue the isntruction. Store it in 72(sp)
         */
        stw   r5,  68(sp)  /* estatus */
10080068:	d9401115 	stw	r5,68(sp)
        addi  r15, ea, -4  /* instruction that caused exception */
1008006c:	ebffff04 	addi	r15,ea,-4
        stw   r15,  72(sp)
10080070:	dbc01215 	stw	r15,72(sp)
#else
        /*
         * Test to see if the exception was a software exception or caused 
         * by an external interrupt, and vector accordingly.
         */
        rdctl r4, ipending
10080074:	0009313a 	rdctl	r4,ipending
        andi  r2, r5, 1
10080078:	2880004c 	andi	r2,r5,1
        beq   r2, zero, .Lnot_irq
1008007c:	10000326 	beq	r2,zero,1008008c <alt_exception+0x6c>
        beq   r4, zero, .Lnot_irq
10080080:	20000226 	beq	r4,zero,1008008c <alt_exception+0x6c>
        /*
         * Now that all necessary registers have been preserved, call 
         * alt_irq_handler() to process the interrupts.
         */

        call alt_irq_handler
10080084:	00800fc0 	call	100800fc <alt_irq_handler>

        .section .exceptions.irqreturn, "xa"

        br    .Lexception_exit
10080088:	00000706 	br	100800a8 <alt_exception+0x88>
         * upon completion, so we write ea (address of instruction *after*
         * the one where the exception occured) into 72(sp). The actual
         * instruction that caused the exception is written in r2, which these
         * handlers will utilize.
         */
        stw   ea,  72(sp)  /* Don't re-issue */
1008008c:	df401215 	stw	ea,72(sp)
        ldhu.n  r2, 0(r4)
        ldhu.n  r3, 2(r4)
        slli.n  r3, r3, 16
        or.n    r2, r2, r3 /* Instruction that caused exception */
#else
        ldw   r2, -4(ea)   /* Instruction that caused exception */
10080090:	e8bfff17 	ldw	r2,-4(ea)
         * debugger is present) or go into an infinite loop since the
         * handling behavior is undefined; in that case we will not return here.
         */

        /* Load exception-causing address as first argument (r4) */
        addi   r4, ea, -4
10080094:	e93fff04 	addi	r4,ea,-4

        /* Call the instruction-exception entry */
        call   alt_instruction_exception_entry
10080098:	00801cc0 	call	100801cc <alt_instruction_exception_entry>
         * instruction
         *
         * Return code was 0: Skip. The instruction after the exception is
         * already stored in 72(sp).
         */
        bne   r2, r0, .Lexception_exit
1008009c:	1000021e 	bne	r2,zero,100800a8 <alt_exception+0x88>

        /*
         * Otherwise, modify 72(sp) to re-issue the instruction that caused the
         * exception.
         */
        addi  r15, ea, -4  /* instruction that caused exception */
100800a0:	ebffff04 	addi	r15,ea,-4
        stw   r15,  72(sp)
100800a4:	dbc01215 	stw	r15,72(sp)
        /* 
         * Restore the saved registers, so that all general purpose registers 
         * have been restored to their state at the time the interrupt occured.
         */

        ldw   r5,  68(sp)
100800a8:	d9401117 	ldw	r5,68(sp)
        ldw   ea,  72(sp)  /* This becomes the PC once eret is executed */
100800ac:	df401217 	ldw	ea,72(sp)
        ldw   ra,   0(sp)
100800b0:	dfc00017 	ldw	ra,0(sp)

        wrctl estatus, r5
100800b4:	2801707a 	wrctl	estatus,r5

        ldw   r1,   8(sp)
100800b8:	d8400217 	ldw	at,8(sp)
        ldw   r2,  12(sp)
100800bc:	d8800317 	ldw	r2,12(sp)
        ldw   r3,  16(sp)
100800c0:	d8c00417 	ldw	r3,16(sp)
        ldw   r4,  20(sp)
100800c4:	d9000517 	ldw	r4,20(sp)
        ldw   r5,  24(sp)
100800c8:	d9400617 	ldw	r5,24(sp)
        ldw   r6,  28(sp)
100800cc:	d9800717 	ldw	r6,28(sp)
        ldw   r7,  32(sp)
100800d0:	d9c00817 	ldw	r7,32(sp)

#if defined(ALT_EXCEPTION_STACK) && defined(ALT_STACK_CHECK)
        ldw   et, %gprel(alt_exception_old_stack_limit)(gp)
#endif

        ldw   r8,  36(sp)
100800d4:	da000917 	ldw	r8,36(sp)
        ldw   r9,  40(sp)
100800d8:	da400a17 	ldw	r9,40(sp)
        ldw   r10, 44(sp)
100800dc:	da800b17 	ldw	r10,44(sp)
        ldw   r11, 48(sp)
100800e0:	dac00c17 	ldw	r11,48(sp)
        ldw   r12, 52(sp)
100800e4:	db000d17 	ldw	r12,52(sp)
        ldw   r13, 56(sp)
100800e8:	db400e17 	ldw	r13,56(sp)
        ldw   r14, 60(sp)
100800ec:	db800f17 	ldw	r14,60(sp)
        ldw   r15, 64(sp)
100800f0:	dbc01017 	ldw	r15,64(sp)
        stw   et, %gprel(alt_stack_limit_value)(gp)
        stw   zero, %gprel(alt_exception_old_stack_limit)(gp)
#endif /* ALT_STACK_CHECK */
        ldw   sp,  76(sp)
#else /* ALT_EXCEPTION_STACK disabled */
        addi  sp, sp, 76
100800f4:	dec01304 	addi	sp,sp,76

        /*
         * Return to the interrupted instruction.
         */

        eret
100800f8:	ef80083a 	eret

100800fc <alt_irq_handler>:
 * instruction is present if the macro ALT_CI_INTERRUPT_VECTOR defined.
 */

void alt_irq_handler (void) __attribute__ ((section (".exceptions")));
void alt_irq_handler (void)
{
100800fc:	defff904 	addi	sp,sp,-28
10080100:	dfc00615 	stw	ra,24(sp)
10080104:	df000515 	stw	fp,20(sp)
10080108:	df000504 	addi	fp,sp,20
  
  /*
   * Notify the operating system that we are at interrupt level.
   */ 
  
  ALT_OS_INT_ENTER();
1008010c:	0001883a 	nop
#ifndef NIOS2_EIC_PRESENT
static ALT_INLINE alt_u32 ALT_ALWAYS_INLINE alt_irq_pending (void)
{
  alt_u32 active;

  NIOS2_READ_IPENDING (active);
10080110:	0005313a 	rdctl	r2,ipending
10080114:	e0bffe15 	stw	r2,-8(fp)

  return active;
10080118:	e0bffe17 	ldw	r2,-8(fp)
   * Consider the case where the high priority interupt is asserted during
   * the interrupt entry sequence for a lower priority interrupt to see why
   * this is the case.
   */

  active = alt_irq_pending ();
1008011c:	e0bffb15 	stw	r2,-20(fp)

  do
  {
    i = 0;
10080120:	e03ffd15 	stw	zero,-12(fp)
    mask = 1;
10080124:	00800044 	movi	r2,1
10080128:	e0bffc15 	stw	r2,-16(fp)
     * called to clear the interrupt condition.
     */

    do
    {
      if (active & mask)
1008012c:	e0fffb17 	ldw	r3,-20(fp)
10080130:	e0bffc17 	ldw	r2,-16(fp)
10080134:	1884703a 	and	r2,r3,r2
10080138:	10001426 	beq	r2,zero,1008018c <alt_irq_handler+0x90>
      { 
#ifdef ALT_ENHANCED_INTERRUPT_API_PRESENT
        alt_irq[i].handler(alt_irq[i].context); 
1008013c:	00820074 	movhi	r2,2049
10080140:	10983504 	addi	r2,r2,24788
10080144:	e0fffd17 	ldw	r3,-12(fp)
10080148:	180690fa 	slli	r3,r3,3
1008014c:	10c5883a 	add	r2,r2,r3
10080150:	10c00017 	ldw	r3,0(r2)
10080154:	00820074 	movhi	r2,2049
10080158:	10983504 	addi	r2,r2,24788
1008015c:	e13ffd17 	ldw	r4,-12(fp)
10080160:	200890fa 	slli	r4,r4,3
10080164:	1105883a 	add	r2,r2,r4
10080168:	10800104 	addi	r2,r2,4
1008016c:	10800017 	ldw	r2,0(r2)
10080170:	1009883a 	mov	r4,r2
10080174:	183ee83a 	callr	r3
#else
        alt_irq[i].handler(alt_irq[i].context, i); 
#endif
        break;
10080178:	0001883a 	nop
#ifndef NIOS2_EIC_PRESENT
static ALT_INLINE alt_u32 ALT_ALWAYS_INLINE alt_irq_pending (void)
{
  alt_u32 active;

  NIOS2_READ_IPENDING (active);
1008017c:	0005313a 	rdctl	r2,ipending
10080180:	e0bfff15 	stw	r2,-4(fp)

  return active;
10080184:	e0bfff17 	ldw	r2,-4(fp)
10080188:	00000706 	br	100801a8 <alt_irq_handler+0xac>
      }
      mask <<= 1;
1008018c:	e0bffc17 	ldw	r2,-16(fp)
10080190:	1085883a 	add	r2,r2,r2
10080194:	e0bffc15 	stw	r2,-16(fp)
      i++;
10080198:	e0bffd17 	ldw	r2,-12(fp)
1008019c:	10800044 	addi	r2,r2,1
100801a0:	e0bffd15 	stw	r2,-12(fp)

    } while (1);
100801a4:	003fe106 	br	1008012c <__ram_exceptions_end+0xfffffeec>

    active = alt_irq_pending ();
100801a8:	e0bffb15 	stw	r2,-20(fp)
    
  } while (active);
100801ac:	e0bffb17 	ldw	r2,-20(fp)
100801b0:	103fdb1e 	bne	r2,zero,10080120 <__ram_exceptions_end+0xfffffee0>

  /*
   * Notify the operating system that interrupt processing is complete.
   */ 

  ALT_OS_INT_EXIT();
100801b4:	0001883a 	nop
}
100801b8:	e037883a 	mov	sp,fp
100801bc:	dfc00117 	ldw	ra,4(sp)
100801c0:	df000017 	ldw	fp,0(sp)
100801c4:	dec00204 	addi	sp,sp,8
100801c8:	f800283a 	ret

100801cc <alt_instruction_exception_entry>:
 * that handler if it has been registered. Absent a handler, it will
 * break break or hang as discussed below.
 */
int 
alt_instruction_exception_entry (alt_u32 exception_pc)
{
100801cc:	defffb04 	addi	sp,sp,-20
100801d0:	dfc00415 	stw	ra,16(sp)
100801d4:	df000315 	stw	fp,12(sp)
100801d8:	df000304 	addi	fp,sp,12
100801dc:	e13fff15 	stw	r4,-4(fp)
 * NIOS2_EXCEPTION_CAUSE_NOT_PRESENT. Your handling routine should
 * check the validity of the cause argument before proceeding.
 */
#ifdef NIOS2_HAS_EXTRA_EXCEPTION_INFO
  /* Get exception cause & "badaddr" */
  NIOS2_READ_EXCEPTION(cause);
100801e0:	000531fa 	rdctl	r2,exception
100801e4:	e0bffd15 	stw	r2,-12(fp)
  cause = ( (cause & NIOS2_EXCEPTION_REG_CAUSE_MASK) >>
100801e8:	e0bffd17 	ldw	r2,-12(fp)
100801ec:	10801f0c 	andi	r2,r2,124
100801f0:	1004d0ba 	srli	r2,r2,2
100801f4:	e0bffd15 	stw	r2,-12(fp)
              NIOS2_EXCEPTION_REG_CAUSE_OFST );

  NIOS2_READ_BADADDR(badaddr);
100801f8:	0005333a 	rdctl	r2,badaddr
100801fc:	e0bffe15 	stw	r2,-8(fp)
#else
  cause = NIOS2_EXCEPTION_CAUSE_NOT_PRESENT;
  badaddr = 0;
#endif /* NIOS2_HAS_EXTRA_EXCEPTION_INFO */

  if(alt_instruction_exception_handler) {
10080200:	d0a6ed17 	ldw	r2,-25676(gp)
10080204:	10000726 	beq	r2,zero,10080224 <alt_instruction_exception_entry+0x58>
     * Call handler. Its return value indicates whether the exception-causing
     * instruction should be re-issued. The code that called us,
     * alt_eceptions_entry.S, will look at this value and adjust the ea
     * register as necessary
     */
    return alt_instruction_exception_handler(cause, exception_pc, badaddr);
10080208:	d0a6ed17 	ldw	r2,-25676(gp)
1008020c:	e0fffd17 	ldw	r3,-12(fp)
10080210:	1809883a 	mov	r4,r3
10080214:	e17fff17 	ldw	r5,-4(fp)
10080218:	e1bffe17 	ldw	r6,-8(fp)
1008021c:	103ee83a 	callr	r2
10080220:	00000206 	br	1008022c <alt_instruction_exception_entry+0x60>
   *    (a peripheral which negates its interrupt output before its
   *    interrupt handler has been executed will cause spurious interrupts)
   */
  else {
#ifdef NIOS2_HAS_DEBUG_STUB
    NIOS2_BREAK();
10080224:	003da03a 	break	0
      ;
#endif /* NIOS2_HAS_DEBUG_STUB */
  }

  /* We should not get here. Remove compiler warning. */
  return NIOS2_EXCEPTION_RETURN_REISSUE_INST;
10080228:	0005883a 	mov	r2,zero
}
1008022c:	e037883a 	mov	sp,fp
10080230:	dfc00117 	ldw	ra,4(sp)
10080234:	df000017 	ldw	fp,0(sp)
10080238:	dec00204 	addi	sp,sp,8
1008023c:	f800283a 	ret

Disassembly of section .text:

08000220 <_start>:

    /* Assume the data cache size is always a power of two. */
#if NIOS2_DCACHE_SIZE > 0x8000
    movhi r2, %hi(NIOS2_DCACHE_SIZE)
#else
    movui r2, NIOS2_DCACHE_SIZE
 8000220:	00820014 	movui	r2,2048
#endif

0:
    initd 0(r2)
 8000224:	10000033 	initd	0(r2)
#ifdef NIOS2_ECC_PRESENT
    addi r2, r2, -4
#else
    addi r2, r2, -NIOS2_DCACHE_LINE_SIZE
 8000228:	10bff804 	addi	r2,r2,-32
#endif
    bgt r2, zero, 0b
 800022c:	00bffd16 	blt	zero,r2,8000224 <__ram_exceptions_end+0xf7f7ffe4>

    /*
     * Now that the caches are initialized, set up the stack pointer and global pointer.
     * The values provided by the linker are assumed to be correctly aligned.
     */
    movhi sp, %hi(__alt_stack_pointer)
 8000230:	06c40034 	movhi	sp,4096
    ori sp, sp, %lo(__alt_stack_pointer)
 8000234:	dec00014 	ori	sp,sp,0
    movhi gp, %hi(_gp)
 8000238:	06820074 	movhi	gp,2049
    ori gp, gp, %lo(_gp)
 800023c:	d6b13d14 	ori	gp,gp,50420
 */
#ifndef ALT_SIM_OPTIMIZE
    /* Log that the BSS is about to be cleared. */
    ALT_LOG_PUTS(alt_log_msg_bss)

    movhi r2, %hi(__bss_start)
 8000240:	00820074 	movhi	r2,2049
    ori r2, r2, %lo(__bss_start)
 8000244:	10981c14 	ori	r2,r2,24688

    movhi r3, %hi(__bss_end)
 8000248:	00c20074 	movhi	r3,2049
    ori r3, r3, %lo(__bss_end)
 800024c:	18d87514 	ori	r3,r3,25044

    beq r2, r3, 1f
 8000250:	10c00326 	beq	r2,r3,8000260 <_start+0x40>

0:
    stw zero, (r2)
 8000254:	10000015 	stw	zero,0(r2)
    addi r2, r2, 4
 8000258:	10800104 	addi	r2,r2,4
    bltu r2, r3, 0b
 800025c:	10fffd36 	bltu	r2,r3,8000254 <__ram_exceptions_end+0xf7f80014>
     * section aren't defined until alt_load() has been called).
     */
    mov   et, zero
#endif

    call alt_load
 8000260:	800fb440 	call	800fb44 <alt_load>

    /* Log that alt_main is about to be called. */
    ALT_LOG_PUTS(alt_log_msg_alt_main)

    /* Call the C entry point. It should never return. */
    call alt_main
 8000264:	800fce80 	call	800fce8 <alt_main>

08000268 <alt_after_alt_main>:

    /* Wait in infinite loop in case alt_main does return. */
alt_after_alt_main:
    br alt_after_alt_main
 8000268:	003fff06 	br	8000268 <__ram_exceptions_end+0xf7f80028>

0800026c <transform>:
static int LABEL_NUM = 6;
static int FC_UNITS = 864;
static int FIRST_CONV = 10 * 10 * 1 * 16;
static int SECOND_CONV = 5 * 5 * 16 * 16;
static int DATA_SHAPE = 49 * 40;
alt_u8 transform(alt_u8 data) {
 800026c:	defffe04 	addi	sp,sp,-8
 8000270:	df000115 	stw	fp,4(sp)
 8000274:	df000104 	addi	fp,sp,4
 8000278:	2005883a 	mov	r2,r4
 800027c:	e0bfff05 	stb	r2,-4(fp)
	if(data == 128)
 8000280:	e0bfff03 	ldbu	r2,-4(fp)
 8000284:	10802018 	cmpnei	r2,r2,128
 8000288:	1000021e 	bne	r2,zero,8000294 <transform+0x28>
		return (alt_u8)0;
 800028c:	0005883a 	mov	r2,zero
 8000290:	00000d06 	br	80002c8 <transform+0x5c>
	if((data >> 7) == 1)
 8000294:	e0bfff03 	ldbu	r2,-4(fp)
 8000298:	1004d1fa 	srli	r2,r2,7
 800029c:	10803fcc 	andi	r2,r2,255
 80002a0:	10800058 	cmpnei	r2,r2,1
 80002a4:	1000071e 	bne	r2,zero,80002c4 <transform+0x58>
		data = (((data << 1) >> 1) ^ 0xFF)+1+128;
 80002a8:	e0bfff03 	ldbu	r2,-4(fp)
 80002ac:	1085883a 	add	r2,r2,r2
 80002b0:	1005d07a 	srai	r2,r2,1
 80002b4:	1007883a 	mov	r3,r2
 80002b8:	00bfe004 	movi	r2,-128
 80002bc:	10c5c83a 	sub	r2,r2,r3
 80002c0:	e0bfff05 	stb	r2,-4(fp)
	return data;
 80002c4:	e0bfff03 	ldbu	r2,-4(fp)
}
 80002c8:	e037883a 	mov	sp,fp
 80002cc:	df000017 	ldw	fp,0(sp)
 80002d0:	dec00104 	addi	sp,sp,4
 80002d4:	f800283a 	ret

080002d8 <read_event>:
void read_event(alt_up_rs232_dev* rs232, alt_u8* w_data, int read_num){
 80002d8:	defff904 	addi	sp,sp,-28
 80002dc:	dfc00615 	stw	ra,24(sp)
 80002e0:	df000515 	stw	fp,20(sp)
 80002e4:	df000504 	addi	fp,sp,20
 80002e8:	e13ffd15 	stw	r4,-12(fp)
 80002ec:	e17ffe15 	stw	r5,-8(fp)
 80002f0:	e1bfff15 	stw	r6,-4(fp)
  alt_u8 read_FIFO_used = 0;
 80002f4:	e03ffc05 	stb	zero,-16(fp)
  alt_u8 fail = 1;
 80002f8:	00800044 	movi	r2,1
 80002fc:	e0bffc45 	stb	r2,-15(fp)
  alt_u8 data;
  int count = 0;
 8000300:	e03ffb15 	stw	zero,-20(fp)
  while(1){
    //read_FIFO_used = alt_up_rs232_get_used_space_in_read_FIFO(rs232_ptr);
    fail = alt_up_rs232_read_data(rs232 , &data, &par);
 8000304:	e0bffc84 	addi	r2,fp,-14
 8000308:	e13ffd17 	ldw	r4,-12(fp)
 800030c:	100b883a 	mov	r5,r2
 8000310:	d1a6df04 	addi	r6,gp,-25732
 8000314:	80102f80 	call	80102f8 <alt_up_rs232_read_data>
 8000318:	e0bffc45 	stb	r2,-15(fp)
    if(!fail){
 800031c:	e0bffc43 	ldbu	r2,-15(fp)
 8000320:	1000141e 	bne	r2,zero,8000374 <read_event+0x9c>
      data = transform(data);
 8000324:	e0bffc83 	ldbu	r2,-14(fp)
 8000328:	10803fcc 	andi	r2,r2,255
 800032c:	1009883a 	mov	r4,r2
 8000330:	800026c0 	call	800026c <transform>
 8000334:	e0bffc85 	stb	r2,-14(fp)
      *(w_data + count) = data;
 8000338:	e0bffb17 	ldw	r2,-20(fp)
 800033c:	e0fffe17 	ldw	r3,-8(fp)
 8000340:	1885883a 	add	r2,r3,r2
 8000344:	e0fffc83 	ldbu	r3,-14(fp)
 8000348:	10c00005 	stb	r3,0(r2)
      alt_up_rs232_disable_read_interrupt(rs232);
 800034c:	e13ffd17 	ldw	r4,-12(fp)
 8000350:	801019c0 	call	801019c <alt_up_rs232_disable_read_interrupt>
      alt_up_rs232_write_data(rs232, 1);
 8000354:	e13ffd17 	ldw	r4,-12(fp)
 8000358:	01400044 	movi	r5,1
 800035c:	80102b80 	call	80102b8 <alt_up_rs232_write_data>
      alt_up_rs232_enable_read_interrupt(rs232);
 8000360:	e13ffd17 	ldw	r4,-12(fp)
 8000364:	80101440 	call	8010144 <alt_up_rs232_enable_read_interrupt>
      count++;
 8000368:	e0bffb17 	ldw	r2,-20(fp)
 800036c:	10800044 	addi	r2,r2,1
 8000370:	e0bffb15 	stw	r2,-20(fp)
      //printf("Read num: %d\n",count);
    }
    if(count == read_num){
 8000374:	e0fffb17 	ldw	r3,-20(fp)
 8000378:	e0bfff17 	ldw	r2,-4(fp)
 800037c:	1880041e 	bne	r3,r2,8000390 <read_event+0xb8>
      printf("Reading data successfully!!!\n");
 8000380:	01020074 	movhi	r4,2049
 8000384:	2108a304 	addi	r4,r4,8844
 8000388:	80040ec0 	call	80040ec <puts>
      break;
 800038c:	00000106 	br	8000394 <read_event+0xbc>
    }
  }
 8000390:	003fdc06 	br	8000304 <__ram_exceptions_end+0xf7f800c4>
}
 8000394:	e037883a 	mov	sp,fp
 8000398:	dfc00117 	ldw	ra,4(sp)
 800039c:	df000017 	ldw	fp,0(sp)
 80003a0:	dec00204 	addi	sp,sp,8
 80003a4:	f800283a 	ret

080003a8 <printBinary>:

void printBinary(int val2, int mode, int num_bit) {
 80003a8:	defff704 	addi	sp,sp,-36
 80003ac:	dfc00815 	stw	ra,32(sp)
 80003b0:	df000715 	stw	fp,28(sp)
 80003b4:	df000704 	addi	fp,sp,28
 80003b8:	e13ffd15 	stw	r4,-12(fp)
 80003bc:	e17ffe15 	stw	r5,-8(fp)
 80003c0:	e1bfff15 	stw	r6,-4(fp)
   /*
    * Used to print 32 bits, e.g. 10000000_10000000_10000000_10000000
    */
   val2 = (val2 << (32 - num_bit));
 80003c4:	e0fffd17 	ldw	r3,-12(fp)
 80003c8:	01000804 	movi	r4,32
 80003cc:	e0bfff17 	ldw	r2,-4(fp)
 80003d0:	2085c83a 	sub	r2,r4,r2
 80003d4:	1884983a 	sll	r2,r3,r2
 80003d8:	e0bffd15 	stw	r2,-12(fp)
   unsigned char *p = (unsigned char*)&(val2) + 3;
 80003dc:	e0bffd04 	addi	r2,fp,-12
 80003e0:	108000c4 	addi	r2,r2,3
 80003e4:	e0bffb15 	stw	r2,-20(fp)
   int k = 0;
 80003e8:	e03ff915 	stw	zero,-28(fp)
   int i = 0;
 80003ec:	e03ffa15 	stw	zero,-24(fp)
   for(k = 0; k < num_bit >> 3; k++) {
 80003f0:	e03ff915 	stw	zero,-28(fp)
 80003f4:	00002306 	br	8000484 <printBinary+0xdc>
      int val2 = *(p-k);
 80003f8:	e0bff917 	ldw	r2,-28(fp)
 80003fc:	0085c83a 	sub	r2,zero,r2
 8000400:	e0fffb17 	ldw	r3,-20(fp)
 8000404:	1885883a 	add	r2,r3,r2
 8000408:	10800003 	ldbu	r2,0(r2)
 800040c:	10803fcc 	andi	r2,r2,255
 8000410:	e0bffc15 	stw	r2,-16(fp)
      for (i = 7; i >= 0; i--) {
 8000414:	008001c4 	movi	r2,7
 8000418:	e0bffa15 	stw	r2,-24(fp)
 800041c:	00000d06 	br	8000454 <printBinary+0xac>
      if(val2 & (1 << i))
 8000420:	e0fffc17 	ldw	r3,-16(fp)
 8000424:	e0bffa17 	ldw	r2,-24(fp)
 8000428:	1885d83a 	sra	r2,r3,r2
 800042c:	1080004c 	andi	r2,r2,1
 8000430:	10000326 	beq	r2,zero,8000440 <printBinary+0x98>
         printf("1");
 8000434:	01000c44 	movi	r4,49
 8000438:	800401c0 	call	800401c <putchar>
 800043c:	00000206 	br	8000448 <printBinary+0xa0>
      else
         printf("0");
 8000440:	01000c04 	movi	r4,48
 8000444:	800401c0 	call	800401c <putchar>
   unsigned char *p = (unsigned char*)&(val2) + 3;
   int k = 0;
   int i = 0;
   for(k = 0; k < num_bit >> 3; k++) {
      int val2 = *(p-k);
      for (i = 7; i >= 0; i--) {
 8000448:	e0bffa17 	ldw	r2,-24(fp)
 800044c:	10bfffc4 	addi	r2,r2,-1
 8000450:	e0bffa15 	stw	r2,-24(fp)
 8000454:	e0bffa17 	ldw	r2,-24(fp)
 8000458:	103ff10e 	bge	r2,zero,8000420 <__ram_exceptions_end+0xf7f801e0>
      if(val2 & (1 << i))
         printf("1");
      else
         printf("0");
      }
      if(k != (num_bit >> 3)-1)
 800045c:	e0bfff17 	ldw	r2,-4(fp)
 8000460:	1005d0fa 	srai	r2,r2,3
 8000464:	10ffffc4 	addi	r3,r2,-1
 8000468:	e0bff917 	ldw	r2,-28(fp)
 800046c:	18800226 	beq	r3,r2,8000478 <printBinary+0xd0>
        printf("_");
 8000470:	010017c4 	movi	r4,95
 8000474:	800401c0 	call	800401c <putchar>
    */
   val2 = (val2 << (32 - num_bit));
   unsigned char *p = (unsigned char*)&(val2) + 3;
   int k = 0;
   int i = 0;
   for(k = 0; k < num_bit >> 3; k++) {
 8000478:	e0bff917 	ldw	r2,-28(fp)
 800047c:	10800044 	addi	r2,r2,1
 8000480:	e0bff915 	stw	r2,-28(fp)
 8000484:	e0bfff17 	ldw	r2,-4(fp)
 8000488:	1005d0fa 	srai	r2,r2,3
 800048c:	e0fff917 	ldw	r3,-28(fp)
 8000490:	18bfd916 	blt	r3,r2,80003f8 <__ram_exceptions_end+0xf7f801b8>
         printf("0");
      }
      if(k != (num_bit >> 3)-1)
        printf("_");
   }
   if(mode == 1)
 8000494:	e0bffe17 	ldw	r2,-8(fp)
 8000498:	10800058 	cmpnei	r2,r2,1
 800049c:	1000031e 	bne	r2,zero,80004ac <printBinary+0x104>
     printf("_");
 80004a0:	010017c4 	movi	r4,95
 80004a4:	800401c0 	call	800401c <putchar>
 80004a8:	00000206 	br	80004b4 <printBinary+0x10c>
   else printf("\n");
 80004ac:	01000284 	movi	r4,10
 80004b0:	800401c0 	call	800401c <putchar>
};
 80004b4:	e037883a 	mov	sp,fp
 80004b8:	dfc00117 	ldw	ra,4(sp)
 80004bc:	df000017 	ldw	fp,0(sp)
 80004c0:	dec00204 	addi	sp,sp,8
 80004c4:	f800283a 	ret

080004c8 <transform_32to8>:

void transform_32to8(alt_u32 data_32, alt_u8 data_8[4] ) {
 80004c8:	defffd04 	addi	sp,sp,-12
 80004cc:	df000215 	stw	fp,8(sp)
 80004d0:	df000204 	addi	fp,sp,8
 80004d4:	e13ffe15 	stw	r4,-8(fp)
 80004d8:	e17fff15 	stw	r5,-4(fp)
   data_8[0] = data_32 & bit_mask;
 80004dc:	e0bffe17 	ldw	r2,-8(fp)
 80004e0:	1007883a 	mov	r3,r2
 80004e4:	d0a00417 	ldw	r2,-32752(gp)
 80004e8:	1884703a 	and	r2,r3,r2
 80004ec:	1007883a 	mov	r3,r2
 80004f0:	e0bfff17 	ldw	r2,-4(fp)
 80004f4:	10c00005 	stb	r3,0(r2)
   data_8[1] = (data_32 >> 8) & bit_mask;
 80004f8:	e0bfff17 	ldw	r2,-4(fp)
 80004fc:	10800044 	addi	r2,r2,1
 8000500:	e0fffe17 	ldw	r3,-8(fp)
 8000504:	1806d23a 	srli	r3,r3,8
 8000508:	1809883a 	mov	r4,r3
 800050c:	d0e00417 	ldw	r3,-32752(gp)
 8000510:	20c6703a 	and	r3,r4,r3
 8000514:	10c00005 	stb	r3,0(r2)
   data_8[2] = (data_32 >> 16) & bit_mask;
 8000518:	e0bfff17 	ldw	r2,-4(fp)
 800051c:	10800084 	addi	r2,r2,2
 8000520:	e0fffe17 	ldw	r3,-8(fp)
 8000524:	1806d43a 	srli	r3,r3,16
 8000528:	1809883a 	mov	r4,r3
 800052c:	d0e00417 	ldw	r3,-32752(gp)
 8000530:	20c6703a 	and	r3,r4,r3
 8000534:	10c00005 	stb	r3,0(r2)
   data_8[3] = (data_32 >> 24) & bit_mask;
 8000538:	e0bfff17 	ldw	r2,-4(fp)
 800053c:	108000c4 	addi	r2,r2,3
 8000540:	e0fffe17 	ldw	r3,-8(fp)
 8000544:	1806d63a 	srli	r3,r3,24
 8000548:	1809883a 	mov	r4,r3
 800054c:	d0e00417 	ldw	r3,-32752(gp)
 8000550:	20c6703a 	and	r3,r4,r3
 8000554:	10c00005 	stb	r3,0(r2)
};
 8000558:	e037883a 	mov	sp,fp
 800055c:	df000017 	ldw	fp,0(sp)
 8000560:	dec00104 	addi	sp,sp,4
 8000564:	f800283a 	ret

08000568 <printSignBinary>:

#include "system.h"
void printSignBinary(alt_u8 data, double offset) {
 8000568:	defff904 	addi	sp,sp,-28
 800056c:	dfc00615 	stw	ra,24(sp)
 8000570:	df000515 	stw	fp,20(sp)
 8000574:	dc400415 	stw	r17,16(sp)
 8000578:	dc000315 	stw	r16,12(sp)
 800057c:	df000504 	addi	fp,sp,20
 8000580:	2005883a 	mov	r2,r4
 8000584:	e17ffc15 	stw	r5,-16(fp)
 8000588:	e1bffd15 	stw	r6,-12(fp)
 800058c:	e0bffb05 	stb	r2,-20(fp)
   // Print the 2's complement binary into decimal
   if((data >>7) == 1) {
 8000590:	e0bffb03 	ldbu	r2,-20(fp)
 8000594:	1004d1fa 	srli	r2,r2,7
 8000598:	10803fcc 	andi	r2,r2,255
 800059c:	10800058 	cmpnei	r2,r2,1
 80005a0:	1000191e 	bne	r2,zero,8000608 <printSignBinary+0xa0>
      data = ((data ^ 0xFF) + 1);
 80005a4:	e0bffb03 	ldbu	r2,-20(fp)
 80005a8:	0085c83a 	sub	r2,zero,r2
 80005ac:	e0bffb05 	stb	r2,-20(fp)
      //printBinary(data, 0, 32);
      printf("%f", -(double)((data) / offset));
 80005b0:	e0bffb03 	ldbu	r2,-20(fp)
 80005b4:	1009883a 	mov	r4,r2
 80005b8:	8003b840 	call	8003b84 <__floatsidf>
 80005bc:	100b883a 	mov	r5,r2
 80005c0:	180d883a 	mov	r6,r3
 80005c4:	2809883a 	mov	r4,r5
 80005c8:	300b883a 	mov	r5,r6
 80005cc:	e1bffc17 	ldw	r6,-16(fp)
 80005d0:	e1fffd17 	ldw	r7,-12(fp)
 80005d4:	80032b80 	call	80032b8 <__divdf3>
 80005d8:	1009883a 	mov	r4,r2
 80005dc:	180b883a 	mov	r5,r3
 80005e0:	2005883a 	mov	r2,r4
 80005e4:	2807883a 	mov	r3,r5
 80005e8:	1021883a 	mov	r16,r2
 80005ec:	1c60003c 	xorhi	r17,r3,32768
 80005f0:	01020074 	movhi	r4,2049
 80005f4:	2108ab04 	addi	r4,r4,8876
 80005f8:	800b883a 	mov	r5,r16
 80005fc:	880d883a 	mov	r6,r17
 8000600:	8003fd80 	call	8003fd8 <printf>
 8000604:	00001306 	br	8000654 <printSignBinary+0xec>
   }
   else printf("%f", (double)data / offset);
 8000608:	e0bffb03 	ldbu	r2,-20(fp)
 800060c:	1009883a 	mov	r4,r2
 8000610:	8003c540 	call	8003c54 <__floatunsidf>
 8000614:	100b883a 	mov	r5,r2
 8000618:	180d883a 	mov	r6,r3
 800061c:	2809883a 	mov	r4,r5
 8000620:	300b883a 	mov	r5,r6
 8000624:	e1bffc17 	ldw	r6,-16(fp)
 8000628:	e1fffd17 	ldw	r7,-12(fp)
 800062c:	80032b80 	call	80032b8 <__divdf3>
 8000630:	1009883a 	mov	r4,r2
 8000634:	180b883a 	mov	r5,r3
 8000638:	2005883a 	mov	r2,r4
 800063c:	2807883a 	mov	r3,r5
 8000640:	01020074 	movhi	r4,2049
 8000644:	2108ab04 	addi	r4,r4,8876
 8000648:	100b883a 	mov	r5,r2
 800064c:	180d883a 	mov	r6,r3
 8000650:	8003fd80 	call	8003fd8 <printf>
}
 8000654:	e6fffe04 	addi	sp,fp,-8
 8000658:	dfc00317 	ldw	ra,12(sp)
 800065c:	df000217 	ldw	fp,8(sp)
 8000660:	dc400117 	ldw	r17,4(sp)
 8000664:	dc000017 	ldw	r16,0(sp)
 8000668:	dec00404 	addi	sp,sp,16
 800066c:	f800283a 	ret

08000670 <transform_8to32>:
alt_u32 transform_8to32(alt_u8* data_8) {
 8000670:	defffc04 	addi	sp,sp,-16
 8000674:	df000315 	stw	fp,12(sp)
 8000678:	df000304 	addi	fp,sp,12
 800067c:	e13fff15 	stw	r4,-4(fp)
  alt_u32 data_32 = 0;
 8000680:	e03ffd15 	stw	zero,-12(fp)
  int i = 0;
 8000684:	e03ffe15 	stw	zero,-8(fp)
  for(i = 0; i < 4; ++i)
 8000688:	e03ffe15 	stw	zero,-8(fp)
 800068c:	00001006 	br	80006d0 <transform_8to32+0x60>
    data_32 += (alt_u32)((((alt_u32)(*(data_8+i*128)))) << 8*i);
 8000690:	e0bffe17 	ldw	r2,-8(fp)
 8000694:	100491fa 	slli	r2,r2,7
 8000698:	1007883a 	mov	r3,r2
 800069c:	e0bfff17 	ldw	r2,-4(fp)
 80006a0:	10c5883a 	add	r2,r2,r3
 80006a4:	10800003 	ldbu	r2,0(r2)
 80006a8:	10c03fcc 	andi	r3,r2,255
 80006ac:	e0bffe17 	ldw	r2,-8(fp)
 80006b0:	100490fa 	slli	r2,r2,3
 80006b4:	1884983a 	sll	r2,r3,r2
 80006b8:	e0fffd17 	ldw	r3,-12(fp)
 80006bc:	1885883a 	add	r2,r3,r2
 80006c0:	e0bffd15 	stw	r2,-12(fp)
   else printf("%f", (double)data / offset);
}
alt_u32 transform_8to32(alt_u8* data_8) {
  alt_u32 data_32 = 0;
  int i = 0;
  for(i = 0; i < 4; ++i)
 80006c4:	e0bffe17 	ldw	r2,-8(fp)
 80006c8:	10800044 	addi	r2,r2,1
 80006cc:	e0bffe15 	stw	r2,-8(fp)
 80006d0:	e0bffe17 	ldw	r2,-8(fp)
 80006d4:	10800110 	cmplti	r2,r2,4
 80006d8:	103fed1e 	bne	r2,zero,8000690 <__ram_exceptions_end+0xf7f80450>
    data_32 += (alt_u32)((((alt_u32)(*(data_8+i*128)))) << 8*i);
//  printBinary(data_32, 0, 32);
  return data_32;
 80006dc:	e0bffd17 	ldw	r2,-12(fp)
}
 80006e0:	e037883a 	mov	sp,fp
 80006e4:	df000017 	ldw	fp,0(sp)
 80006e8:	dec00104 	addi	sp,sp,4
 80006ec:	f800283a 	ret

080006f0 <printMatrix>:
void printMatrix(alt_u8* matrix, int ROW, int COLUMN, int DEPTH, double precision) {
 80006f0:	defff704 	addi	sp,sp,-36
 80006f4:	dfc00815 	stw	ra,32(sp)
 80006f8:	df000715 	stw	fp,28(sp)
 80006fc:	df000704 	addi	fp,sp,28
 8000700:	e13ffc15 	stw	r4,-16(fp)
 8000704:	e17ffd15 	stw	r5,-12(fp)
 8000708:	e1bffe15 	stw	r6,-8(fp)
 800070c:	e1ffff15 	stw	r7,-4(fp)
  int row = 0, column = 0, dep = 0;
 8000710:	e03ff915 	stw	zero,-28(fp)
 8000714:	e03ffa15 	stw	zero,-24(fp)
 8000718:	e03ffb15 	stw	zero,-20(fp)
  for(dep = 0; dep < DEPTH; dep ++) {
 800071c:	e03ffb15 	stw	zero,-20(fp)
 8000720:	00002f06 	br	80007e0 <printMatrix+0xf0>
    printf("Dep %d: \n", dep);
 8000724:	01020074 	movhi	r4,2049
 8000728:	2108ac04 	addi	r4,r4,8880
 800072c:	e17ffb17 	ldw	r5,-20(fp)
 8000730:	8003fd80 	call	8003fd8 <printf>
    for(row = 0; row < ROW; row++){
 8000734:	e03ff915 	stw	zero,-28(fp)
 8000738:	00002306 	br	80007c8 <printMatrix+0xd8>
      for(column = 0; column < COLUMN; column++) {
 800073c:	e03ffa15 	stw	zero,-24(fp)
 8000740:	00001906 	br	80007a8 <printMatrix+0xb8>
        //printf("%f",(double)(*(matrix+row*COLUMN*DEPTH+column*DEPTH + dep)) / precision);
    	printSignBinary(*(matrix+row*COLUMN*DEPTH+column*DEPTH + dep), precision);
 8000744:	e0fff917 	ldw	r3,-28(fp)
 8000748:	e0bffe17 	ldw	r2,-8(fp)
 800074c:	1887383a 	mul	r3,r3,r2
 8000750:	e0bfff17 	ldw	r2,-4(fp)
 8000754:	1885383a 	mul	r2,r3,r2
 8000758:	1009883a 	mov	r4,r2
 800075c:	e0fffa17 	ldw	r3,-24(fp)
 8000760:	e0bfff17 	ldw	r2,-4(fp)
 8000764:	1885383a 	mul	r2,r3,r2
 8000768:	2087883a 	add	r3,r4,r2
 800076c:	e0bffb17 	ldw	r2,-20(fp)
 8000770:	1885883a 	add	r2,r3,r2
 8000774:	e0fffc17 	ldw	r3,-16(fp)
 8000778:	1885883a 	add	r2,r3,r2
 800077c:	10800003 	ldbu	r2,0(r2)
 8000780:	10803fcc 	andi	r2,r2,255
 8000784:	1009883a 	mov	r4,r2
 8000788:	e1400217 	ldw	r5,8(fp)
 800078c:	e1800317 	ldw	r6,12(fp)
 8000790:	80005680 	call	8000568 <printSignBinary>
        printf(" ");
 8000794:	01000804 	movi	r4,32
 8000798:	800401c0 	call	800401c <putchar>
void printMatrix(alt_u8* matrix, int ROW, int COLUMN, int DEPTH, double precision) {
  int row = 0, column = 0, dep = 0;
  for(dep = 0; dep < DEPTH; dep ++) {
    printf("Dep %d: \n", dep);
    for(row = 0; row < ROW; row++){
      for(column = 0; column < COLUMN; column++) {
 800079c:	e0bffa17 	ldw	r2,-24(fp)
 80007a0:	10800044 	addi	r2,r2,1
 80007a4:	e0bffa15 	stw	r2,-24(fp)
 80007a8:	e0fffa17 	ldw	r3,-24(fp)
 80007ac:	e0bffe17 	ldw	r2,-8(fp)
 80007b0:	18bfe416 	blt	r3,r2,8000744 <__ram_exceptions_end+0xf7f80504>
        //printf("%f",(double)(*(matrix+row*COLUMN*DEPTH+column*DEPTH + dep)) / precision);
    	printSignBinary(*(matrix+row*COLUMN*DEPTH+column*DEPTH + dep), precision);
        printf(" ");
      }
      printf("\n");
 80007b4:	01000284 	movi	r4,10
 80007b8:	800401c0 	call	800401c <putchar>
}
void printMatrix(alt_u8* matrix, int ROW, int COLUMN, int DEPTH, double precision) {
  int row = 0, column = 0, dep = 0;
  for(dep = 0; dep < DEPTH; dep ++) {
    printf("Dep %d: \n", dep);
    for(row = 0; row < ROW; row++){
 80007bc:	e0bff917 	ldw	r2,-28(fp)
 80007c0:	10800044 	addi	r2,r2,1
 80007c4:	e0bff915 	stw	r2,-28(fp)
 80007c8:	e0fff917 	ldw	r3,-28(fp)
 80007cc:	e0bffd17 	ldw	r2,-12(fp)
 80007d0:	18bfda16 	blt	r3,r2,800073c <__ram_exceptions_end+0xf7f804fc>
//  printBinary(data_32, 0, 32);
  return data_32;
}
void printMatrix(alt_u8* matrix, int ROW, int COLUMN, int DEPTH, double precision) {
  int row = 0, column = 0, dep = 0;
  for(dep = 0; dep < DEPTH; dep ++) {
 80007d4:	e0bffb17 	ldw	r2,-20(fp)
 80007d8:	10800044 	addi	r2,r2,1
 80007dc:	e0bffb15 	stw	r2,-20(fp)
 80007e0:	e0fffb17 	ldw	r3,-20(fp)
 80007e4:	e0bfff17 	ldw	r2,-4(fp)
 80007e8:	18bfce16 	blt	r3,r2,8000724 <__ram_exceptions_end+0xf7f804e4>
        printf(" ");
      }
      printf("\n");
    }
  }
}
 80007ec:	e037883a 	mov	sp,fp
 80007f0:	dfc00117 	ldw	ra,4(sp)
 80007f4:	df000017 	ldw	fp,0(sp)
 80007f8:	dec00204 	addi	sp,sp,8
 80007fc:	f800283a 	ret

08000800 <flatten_matrix>:
void flatten_matrix(alt_u8* flattened_matrix, alt_u8* input_fmap,
      int input_fmap_h, int input_fmap_w, int filter_h, int filter_w, int depth){
 8000800:	defff404 	addi	sp,sp,-48
 8000804:	df000b15 	stw	fp,44(sp)
 8000808:	df000b04 	addi	fp,sp,44
 800080c:	e13ffc15 	stw	r4,-16(fp)
 8000810:	e17ffd15 	stw	r5,-12(fp)
 8000814:	e1bffe15 	stw	r6,-8(fp)
 8000818:	e1ffff15 	stw	r7,-4(fp)
   //printf("  flatten input_fmap to flattened_matrix ...................................................\n");
   int w = 0, h = 0, d = 0;
 800081c:	e03ff515 	stw	zero,-44(fp)
 8000820:	e03ff615 	stw	zero,-40(fp)
 8000824:	e03ffb15 	stw	zero,-20(fp)
   int count = 0;
 8000828:	e03ff715 	stw	zero,-36(fp)
   while(w + filter_w <= input_fmap_w)
 800082c:	00004006 	br	8000930 <flatten_matrix+0x130>
   {
      while(h + filter_h <= input_fmap_h)
 8000830:	00003606 	br	800090c <flatten_matrix+0x10c>
      {
         int w_in, h_in, d_in = 0;
 8000834:	e03ffa15 	stw	zero,-24(fp)
         for(h_in = 0; h_in < filter_h; ++h_in){
 8000838:	e03ff915 	stw	zero,-28(fp)
 800083c:	00002d06 	br	80008f4 <flatten_matrix+0xf4>
            for (w_in = 0; w_in < filter_w; ++w_in){
 8000840:	e03ff815 	stw	zero,-32(fp)
 8000844:	00002506 	br	80008dc <flatten_matrix+0xdc>
               for (d_in = 0; d_in < depth; ++d_in){
 8000848:	e03ffa15 	stw	zero,-24(fp)
 800084c:	00001d06 	br	80008c4 <flatten_matrix+0xc4>
                  *(flattened_matrix + count) = *(input_fmap + (h+h_in) * depth * input_fmap_w + (w+w_in) * depth + d_in);
 8000850:	e0bff717 	ldw	r2,-36(fp)
 8000854:	e0fffc17 	ldw	r3,-16(fp)
 8000858:	1885883a 	add	r2,r3,r2
 800085c:	e13ff617 	ldw	r4,-40(fp)
 8000860:	e0fff917 	ldw	r3,-28(fp)
 8000864:	20c9883a 	add	r4,r4,r3
 8000868:	e0c00317 	ldw	r3,12(fp)
 800086c:	20c9383a 	mul	r4,r4,r3
 8000870:	e0ffff17 	ldw	r3,-4(fp)
 8000874:	20c7383a 	mul	r3,r4,r3
 8000878:	180b883a 	mov	r5,r3
 800087c:	e13ff517 	ldw	r4,-44(fp)
 8000880:	e0fff817 	ldw	r3,-32(fp)
 8000884:	20c9883a 	add	r4,r4,r3
 8000888:	e0c00317 	ldw	r3,12(fp)
 800088c:	20c7383a 	mul	r3,r4,r3
 8000890:	28c9883a 	add	r4,r5,r3
 8000894:	e0fffa17 	ldw	r3,-24(fp)
 8000898:	20c7883a 	add	r3,r4,r3
 800089c:	e13ffd17 	ldw	r4,-12(fp)
 80008a0:	20c7883a 	add	r3,r4,r3
 80008a4:	18c00003 	ldbu	r3,0(r3)
 80008a8:	10c00005 	stb	r3,0(r2)
                  count = count + 1;
 80008ac:	e0bff717 	ldw	r2,-36(fp)
 80008b0:	10800044 	addi	r2,r2,1
 80008b4:	e0bff715 	stw	r2,-36(fp)
      while(h + filter_h <= input_fmap_h)
      {
         int w_in, h_in, d_in = 0;
         for(h_in = 0; h_in < filter_h; ++h_in){
            for (w_in = 0; w_in < filter_w; ++w_in){
               for (d_in = 0; d_in < depth; ++d_in){
 80008b8:	e0bffa17 	ldw	r2,-24(fp)
 80008bc:	10800044 	addi	r2,r2,1
 80008c0:	e0bffa15 	stw	r2,-24(fp)
 80008c4:	e0fffa17 	ldw	r3,-24(fp)
 80008c8:	e0800317 	ldw	r2,12(fp)
 80008cc:	18bfe016 	blt	r3,r2,8000850 <__ram_exceptions_end+0xf7f80610>
   {
      while(h + filter_h <= input_fmap_h)
      {
         int w_in, h_in, d_in = 0;
         for(h_in = 0; h_in < filter_h; ++h_in){
            for (w_in = 0; w_in < filter_w; ++w_in){
 80008d0:	e0bff817 	ldw	r2,-32(fp)
 80008d4:	10800044 	addi	r2,r2,1
 80008d8:	e0bff815 	stw	r2,-32(fp)
 80008dc:	e0fff817 	ldw	r3,-32(fp)
 80008e0:	e0800217 	ldw	r2,8(fp)
 80008e4:	18bfd816 	blt	r3,r2,8000848 <__ram_exceptions_end+0xf7f80608>
   while(w + filter_w <= input_fmap_w)
   {
      while(h + filter_h <= input_fmap_h)
      {
         int w_in, h_in, d_in = 0;
         for(h_in = 0; h_in < filter_h; ++h_in){
 80008e8:	e0bff917 	ldw	r2,-28(fp)
 80008ec:	10800044 	addi	r2,r2,1
 80008f0:	e0bff915 	stw	r2,-28(fp)
 80008f4:	e0fff917 	ldw	r3,-28(fp)
 80008f8:	e0800117 	ldw	r2,4(fp)
 80008fc:	18bfd016 	blt	r3,r2,8000840 <__ram_exceptions_end+0xf7f80600>
                  *(flattened_matrix + count) = *(input_fmap + (h+h_in) * depth * input_fmap_w + (w+w_in) * depth + d_in);
                  count = count + 1;
               }
            }
         }
         h = h + 1;
 8000900:	e0bff617 	ldw	r2,-40(fp)
 8000904:	10800044 	addi	r2,r2,1
 8000908:	e0bff615 	stw	r2,-40(fp)
   //printf("  flatten input_fmap to flattened_matrix ...................................................\n");
   int w = 0, h = 0, d = 0;
   int count = 0;
   while(w + filter_w <= input_fmap_w)
   {
      while(h + filter_h <= input_fmap_h)
 800090c:	e0fff617 	ldw	r3,-40(fp)
 8000910:	e0800117 	ldw	r2,4(fp)
 8000914:	1885883a 	add	r2,r3,r2
 8000918:	e0fffe17 	ldw	r3,-8(fp)
 800091c:	18bfc50e 	bge	r3,r2,8000834 <__ram_exceptions_end+0xf7f805f4>
               }
            }
         }
         h = h + 1;
      }
      w = w + 1;
 8000920:	e0bff517 	ldw	r2,-44(fp)
 8000924:	10800044 	addi	r2,r2,1
 8000928:	e0bff515 	stw	r2,-44(fp)
      h = 0;
 800092c:	e03ff615 	stw	zero,-40(fp)
void flatten_matrix(alt_u8* flattened_matrix, alt_u8* input_fmap,
      int input_fmap_h, int input_fmap_w, int filter_h, int filter_w, int depth){
   //printf("  flatten input_fmap to flattened_matrix ...................................................\n");
   int w = 0, h = 0, d = 0;
   int count = 0;
   while(w + filter_w <= input_fmap_w)
 8000930:	e0fff517 	ldw	r3,-44(fp)
 8000934:	e0800217 	ldw	r2,8(fp)
 8000938:	1885883a 	add	r2,r3,r2
 800093c:	e0ffff17 	ldw	r3,-4(fp)
 8000940:	18bfbb0e 	bge	r3,r2,8000830 <__ram_exceptions_end+0xf7f805f0>
         h = h + 1;
      }
      w = w + 1;
      h = 0;
   }
};
 8000944:	e037883a 	mov	sp,fp
 8000948:	df000017 	ldw	fp,0(sp)
 800094c:	dec00104 	addi	sp,sp,4
 8000950:	f800283a 	ret

08000954 <truncation>:

alt_u8 truncation(alt_16 data) {
 8000954:	defffc04 	addi	sp,sp,-16
 8000958:	df000315 	stw	fp,12(sp)
 800095c:	df000304 	addi	fp,sp,12
 8000960:	2005883a 	mov	r2,r4
 8000964:	e0bfff0d 	sth	r2,-4(fp)
   double max_num = 7.9375;
 8000968:	e03ffd15 	stw	zero,-12(fp)
 800096c:	00900834 	movhi	r2,16416
 8000970:	10b00004 	addi	r2,r2,-16384
 8000974:	e0bffe15 	stw	r2,-8(fp)
   if(data > 127) {
 8000978:	e0bfff0f 	ldh	r2,-4(fp)
 800097c:	10802010 	cmplti	r2,r2,128
 8000980:	1000021e 	bne	r2,zero,800098c <truncation+0x38>
      //printf("    Data %f is bigger than %f!!\n", (double)(data) / 16.0, (double)(max_num));
      return (alt_u8)(127);
 8000984:	00801fc4 	movi	r2,127
 8000988:	00000506 	br	80009a0 <truncation+0x4c>
   }
   else if(data < 0) {
 800098c:	e0bfff0f 	ldh	r2,-4(fp)
 8000990:	1000020e 	bge	r2,zero,800099c <truncation+0x48>
      //printf("    Data %f is smaller than %f!!\n", (double)(data) / 16.0, (double)(0));
      return (alt_u8)0;
 8000994:	0005883a 	mov	r2,zero
 8000998:	00000106 	br	80009a0 <truncation+0x4c>
   }
   else return (alt_u8)data;
 800099c:	e0bfff0b 	ldhu	r2,-4(fp)
};
 80009a0:	e037883a 	mov	sp,fp
 80009a4:	df000017 	ldw	fp,0(sp)
 80009a8:	dec00104 	addi	sp,sp,4
 80009ac:	f800283a 	ret

080009b0 <matrix_to_imageCube>:

void matrix_to_imageCube(alt_16* matrix_result, alt_u8* o_fmap, int height, int width, int depth) {
 80009b0:	defff504 	addi	sp,sp,-44
 80009b4:	dfc00a15 	stw	ra,40(sp)
 80009b8:	df000915 	stw	fp,36(sp)
 80009bc:	dc000815 	stw	r16,32(sp)
 80009c0:	df000904 	addi	fp,sp,36
 80009c4:	e13ffb15 	stw	r4,-20(fp)
 80009c8:	e17ffc15 	stw	r5,-16(fp)
 80009cc:	e1bffd15 	stw	r6,-12(fp)
 80009d0:	e1fffe15 	stw	r7,-8(fp)
//   printf("  Transforming matrix to image cube...\n");
   int h = 0, w = 0, d = 0;
 80009d4:	e03ff715 	stw	zero,-36(fp)
 80009d8:	e03ff815 	stw	zero,-32(fp)
 80009dc:	e03ff915 	stw	zero,-28(fp)
   for(d = 0; d < depth; d++) {
 80009e0:	e03ff915 	stw	zero,-28(fp)
 80009e4:	00003906 	br	8000acc <matrix_to_imageCube+0x11c>
      alt_16* current_map;
      current_map = matrix_result + d;
 80009e8:	e0bff917 	ldw	r2,-28(fp)
 80009ec:	1085883a 	add	r2,r2,r2
 80009f0:	1007883a 	mov	r3,r2
 80009f4:	e0bffb17 	ldw	r2,-20(fp)
 80009f8:	10c5883a 	add	r2,r2,r3
 80009fc:	e0bffa15 	stw	r2,-24(fp)
      for(w = 0; w < width; w++) {
 8000a00:	e03ff815 	stw	zero,-32(fp)
 8000a04:	00002b06 	br	8000ab4 <matrix_to_imageCube+0x104>
         for(h = 0; h < height; h++) {
 8000a08:	e03ff715 	stw	zero,-36(fp)
 8000a0c:	00002306 	br	8000a9c <matrix_to_imageCube+0xec>
         //printf("    Data before truncate: "); //
            //printf("%f", (double)(*(current_map + (h + w*height)*depth)) / 16.0);
            //printf("\n");
            *(o_fmap+h*width*depth+w*depth+d) = truncation(*(current_map + (h + w*height)*depth));
 8000a10:	e0fff717 	ldw	r3,-36(fp)
 8000a14:	e0bffe17 	ldw	r2,-8(fp)
 8000a18:	1887383a 	mul	r3,r3,r2
 8000a1c:	e0800217 	ldw	r2,8(fp)
 8000a20:	1885383a 	mul	r2,r3,r2
 8000a24:	1009883a 	mov	r4,r2
 8000a28:	e0fff817 	ldw	r3,-32(fp)
 8000a2c:	e0800217 	ldw	r2,8(fp)
 8000a30:	1885383a 	mul	r2,r3,r2
 8000a34:	2087883a 	add	r3,r4,r2
 8000a38:	e0bff917 	ldw	r2,-28(fp)
 8000a3c:	1885883a 	add	r2,r3,r2
 8000a40:	e0fffc17 	ldw	r3,-16(fp)
 8000a44:	18a1883a 	add	r16,r3,r2
 8000a48:	e0fff817 	ldw	r3,-32(fp)
 8000a4c:	e0bffd17 	ldw	r2,-12(fp)
 8000a50:	1887383a 	mul	r3,r3,r2
 8000a54:	e0bff717 	ldw	r2,-36(fp)
 8000a58:	1887883a 	add	r3,r3,r2
 8000a5c:	e0800217 	ldw	r2,8(fp)
 8000a60:	1885383a 	mul	r2,r3,r2
 8000a64:	1085883a 	add	r2,r2,r2
 8000a68:	1007883a 	mov	r3,r2
 8000a6c:	e0bffa17 	ldw	r2,-24(fp)
 8000a70:	10c5883a 	add	r2,r2,r3
 8000a74:	1080000b 	ldhu	r2,0(r2)
 8000a78:	10bfffcc 	andi	r2,r2,65535
 8000a7c:	10a0001c 	xori	r2,r2,32768
 8000a80:	10a00004 	addi	r2,r2,-32768
 8000a84:	1009883a 	mov	r4,r2
 8000a88:	80009540 	call	8000954 <truncation>
 8000a8c:	80800005 	stb	r2,0(r16)
   int h = 0, w = 0, d = 0;
   for(d = 0; d < depth; d++) {
      alt_16* current_map;
      current_map = matrix_result + d;
      for(w = 0; w < width; w++) {
         for(h = 0; h < height; h++) {
 8000a90:	e0bff717 	ldw	r2,-36(fp)
 8000a94:	10800044 	addi	r2,r2,1
 8000a98:	e0bff715 	stw	r2,-36(fp)
 8000a9c:	e0fff717 	ldw	r3,-36(fp)
 8000aa0:	e0bffd17 	ldw	r2,-12(fp)
 8000aa4:	18bfda16 	blt	r3,r2,8000a10 <__ram_exceptions_end+0xf7f807d0>
//   printf("  Transforming matrix to image cube...\n");
   int h = 0, w = 0, d = 0;
   for(d = 0; d < depth; d++) {
      alt_16* current_map;
      current_map = matrix_result + d;
      for(w = 0; w < width; w++) {
 8000aa8:	e0bff817 	ldw	r2,-32(fp)
 8000aac:	10800044 	addi	r2,r2,1
 8000ab0:	e0bff815 	stw	r2,-32(fp)
 8000ab4:	e0fff817 	ldw	r3,-32(fp)
 8000ab8:	e0bffe17 	ldw	r2,-8(fp)
 8000abc:	18bfd216 	blt	r3,r2,8000a08 <__ram_exceptions_end+0xf7f807c8>
};

void matrix_to_imageCube(alt_16* matrix_result, alt_u8* o_fmap, int height, int width, int depth) {
//   printf("  Transforming matrix to image cube...\n");
   int h = 0, w = 0, d = 0;
   for(d = 0; d < depth; d++) {
 8000ac0:	e0bff917 	ldw	r2,-28(fp)
 8000ac4:	10800044 	addi	r2,r2,1
 8000ac8:	e0bff915 	stw	r2,-28(fp)
 8000acc:	e0fff917 	ldw	r3,-28(fp)
 8000ad0:	e0800217 	ldw	r2,8(fp)
 8000ad4:	18bfc416 	blt	r3,r2,80009e8 <__ram_exceptions_end+0xf7f807a8>
            //printSignBinary((*(o_fmap+ h*width*depth + w*depth + d)), 16.0);
            //printf("\n");
         }
      }
   }
};
 8000ad8:	e6ffff04 	addi	sp,fp,-4
 8000adc:	dfc00217 	ldw	ra,8(sp)
 8000ae0:	df000117 	ldw	fp,4(sp)
 8000ae4:	dc000017 	ldw	r16,0(sp)
 8000ae8:	dec00304 	addi	sp,sp,12
 8000aec:	f800283a 	ret

08000af0 <mat_mul>:
void mat_mul(alt_u8* matrix, alt_16* result) {
 8000af0:	defffe04 	addi	sp,sp,-8
 8000af4:	dfc00115 	stw	ra,4(sp)
 8000af8:	df000015 	stw	fp,0(sp)
 8000afc:	d839883a 	mov	fp,sp
 8000b00:	023ffff4 	movhi	r8,65535
 8000b04:	421f7a04 	addi	r8,r8,32232
 8000b08:	da37883a 	add	sp,sp,r8
 8000b0c:	00a08414 	movui	r2,33296
 8000b10:	00fffff4 	movhi	r3,65535
 8000b14:	18df7a04 	addi	r3,r3,32232
 8000b18:	1f07883a 	add	r3,r3,fp
 8000b1c:	1885883a 	add	r2,r3,r2
 8000b20:	11000015 	stw	r4,0(r2)
 8000b24:	00a08514 	movui	r2,33300
 8000b28:	013ffff4 	movhi	r4,65535
 8000b2c:	211f7a04 	addi	r4,r4,32232
 8000b30:	2709883a 	add	r4,r4,fp
 8000b34:	2085883a 	add	r2,r4,r2
 8000b38:	11400015 	stw	r5,0(r2)
   // Assert the matrix size to NUM_DIM x NUM_VECTOR
//   printf("  Calculating matmul(%d x %d)...\n", NUM_DIM, NUM_VECTOR);
   int row = 0, column = 0;
 8000b3c:	017ffff4 	movhi	r5,65535
 8000b40:	295f7a04 	addi	r5,r5,32232
 8000b44:	2f0b883a 	add	r5,r5,fp
 8000b48:	28000015 	stw	zero,0(r5)
 8000b4c:	00bffff4 	movhi	r2,65535
 8000b50:	109f7b04 	addi	r2,r2,32236
 8000b54:	1705883a 	add	r2,r2,fp
 8000b58:	10000015 	stw	zero,0(r2)
   alt_u32 matrix_32[65][128] = {0};
 8000b5c:	013ffff4 	movhi	r4,65535
 8000b60:	211f7e04 	addi	r4,r4,32248
 8000b64:	e107883a 	add	r3,fp,r4
 8000b68:	00a08014 	movui	r2,33280
 8000b6c:	1809883a 	mov	r4,r3
 8000b70:	000b883a 	mov	r5,zero
 8000b74:	100d883a 	mov	r6,r2
 8000b78:	8003e880 	call	8003e88 <memset>
//   printf("ready................\n");
   for(column = 0; column < 128; column++) {
 8000b7c:	017ffff4 	movhi	r5,65535
 8000b80:	295f7b04 	addi	r5,r5,32236
 8000b84:	2f0b883a 	add	r5,r5,fp
 8000b88:	28000015 	stw	zero,0(r5)
 8000b8c:	00004406 	br	8000ca0 <mat_mul+0x1b0>
     for(row = 0; row < 65; row++) {
 8000b90:	00bffff4 	movhi	r2,65535
 8000b94:	109f7a04 	addi	r2,r2,32232
 8000b98:	1705883a 	add	r2,r2,fp
 8000b9c:	10000015 	stw	zero,0(r2)
 8000ba0:	00003006 	br	8000c64 <mat_mul+0x174>
       matrix_32[row][column] = transform_8to32(matrix+128*4*row+column);
 8000ba4:	00fffff4 	movhi	r3,65535
 8000ba8:	18df7a04 	addi	r3,r3,32232
 8000bac:	1f07883a 	add	r3,r3,fp
 8000bb0:	18800017 	ldw	r2,0(r3)
 8000bb4:	1004927a 	slli	r2,r2,9
 8000bb8:	1007883a 	mov	r3,r2
 8000bbc:	013ffff4 	movhi	r4,65535
 8000bc0:	211f7b04 	addi	r4,r4,32236
 8000bc4:	2709883a 	add	r4,r4,fp
 8000bc8:	20800017 	ldw	r2,0(r4)
 8000bcc:	1885883a 	add	r2,r3,r2
 8000bd0:	00e08414 	movui	r3,33296
 8000bd4:	017ffff4 	movhi	r5,65535
 8000bd8:	295f7a04 	addi	r5,r5,32232
 8000bdc:	2f0b883a 	add	r5,r5,fp
 8000be0:	28c7883a 	add	r3,r5,r3
 8000be4:	18c00017 	ldw	r3,0(r3)
 8000be8:	1885883a 	add	r2,r3,r2
 8000bec:	1009883a 	mov	r4,r2
 8000bf0:	80006700 	call	8000670 <transform_8to32>
 8000bf4:	1009883a 	mov	r4,r2
 8000bf8:	00fffff4 	movhi	r3,65535
 8000bfc:	18df7a04 	addi	r3,r3,32232
 8000c00:	1f07883a 	add	r3,r3,fp
 8000c04:	18800017 	ldw	r2,0(r3)
 8000c08:	100691fa 	slli	r3,r2,7
 8000c0c:	017ffff4 	movhi	r5,65535
 8000c10:	295f7b04 	addi	r5,r5,32236
 8000c14:	2f0b883a 	add	r5,r5,fp
 8000c18:	28800017 	ldw	r2,0(r5)
 8000c1c:	1885883a 	add	r2,r3,r2
 8000c20:	1085883a 	add	r2,r2,r2
 8000c24:	1085883a 	add	r2,r2,r2
 8000c28:	00fffff4 	movhi	r3,65535
 8000c2c:	18df7a04 	addi	r3,r3,32232
 8000c30:	1f07883a 	add	r3,r3,fp
 8000c34:	1885883a 	add	r2,r3,r2
 8000c38:	10800404 	addi	r2,r2,16
 8000c3c:	11000015 	stw	r4,0(r2)
//   printf("  Calculating matmul(%d x %d)...\n", NUM_DIM, NUM_VECTOR);
   int row = 0, column = 0;
   alt_u32 matrix_32[65][128] = {0};
//   printf("ready................\n");
   for(column = 0; column < 128; column++) {
     for(row = 0; row < 65; row++) {
 8000c40:	013ffff4 	movhi	r4,65535
 8000c44:	211f7a04 	addi	r4,r4,32232
 8000c48:	2709883a 	add	r4,r4,fp
 8000c4c:	20800017 	ldw	r2,0(r4)
 8000c50:	10800044 	addi	r2,r2,1
 8000c54:	017ffff4 	movhi	r5,65535
 8000c58:	295f7a04 	addi	r5,r5,32232
 8000c5c:	2f0b883a 	add	r5,r5,fp
 8000c60:	28800015 	stw	r2,0(r5)
 8000c64:	00fffff4 	movhi	r3,65535
 8000c68:	18df7a04 	addi	r3,r3,32232
 8000c6c:	1f07883a 	add	r3,r3,fp
 8000c70:	18800017 	ldw	r2,0(r3)
 8000c74:	10801050 	cmplti	r2,r2,65
 8000c78:	103fca1e 	bne	r2,zero,8000ba4 <__ram_exceptions_end+0xf7f80964>
   // Assert the matrix size to NUM_DIM x NUM_VECTOR
//   printf("  Calculating matmul(%d x %d)...\n", NUM_DIM, NUM_VECTOR);
   int row = 0, column = 0;
   alt_u32 matrix_32[65][128] = {0};
//   printf("ready................\n");
   for(column = 0; column < 128; column++) {
 8000c7c:	013ffff4 	movhi	r4,65535
 8000c80:	211f7b04 	addi	r4,r4,32236
 8000c84:	2709883a 	add	r4,r4,fp
 8000c88:	20800017 	ldw	r2,0(r4)
 8000c8c:	10800044 	addi	r2,r2,1
 8000c90:	017ffff4 	movhi	r5,65535
 8000c94:	295f7b04 	addi	r5,r5,32236
 8000c98:	2f0b883a 	add	r5,r5,fp
 8000c9c:	28800015 	stw	r2,0(r5)
 8000ca0:	00fffff4 	movhi	r3,65535
 8000ca4:	18df7b04 	addi	r3,r3,32236
 8000ca8:	1f07883a 	add	r3,r3,fp
 8000cac:	18800017 	ldw	r2,0(r3)
 8000cb0:	10802010 	cmplti	r2,r2,128
 8000cb4:	103fb61e 	bne	r2,zero,8000b90 <__ram_exceptions_end+0xf7f80950>
       //printf("%d", matrix_32[row][column]);
     }
   }

//   printf("ready write................\n");
   int count = 0;
 8000cb8:	013ffff4 	movhi	r4,65535
 8000cbc:	211f7c04 	addi	r4,r4,32240
 8000cc0:	2709883a 	add	r4,r4,fp
 8000cc4:	20000015 	stw	zero,0(r4)
   for(column = 0; column < 128; column++) {
 8000cc8:	017ffff4 	movhi	r5,65535
 8000ccc:	295f7b04 	addi	r5,r5,32236
 8000cd0:	2f0b883a 	add	r5,r5,fp
 8000cd4:	28000015 	stw	zero,0(r5)
 8000cd8:	00003c06 	br	8000dcc <mat_mul+0x2dc>
      for(row = 0; row < 65; row++) {
 8000cdc:	00bffff4 	movhi	r2,65535
 8000ce0:	109f7a04 	addi	r2,r2,32232
 8000ce4:	1705883a 	add	r2,r2,fp
 8000ce8:	10000015 	stw	zero,0(r2)
 8000cec:	00002806 	br	8000d90 <mat_mul+0x2a0>
        count = count + 1;
 8000cf0:	00fffff4 	movhi	r3,65535
 8000cf4:	18df7c04 	addi	r3,r3,32240
 8000cf8:	1f07883a 	add	r3,r3,fp
 8000cfc:	18800017 	ldw	r2,0(r3)
 8000d00:	10800044 	addi	r2,r2,1
 8000d04:	013ffff4 	movhi	r4,65535
 8000d08:	211f7c04 	addi	r4,r4,32240
 8000d0c:	2709883a 	add	r4,r4,fp
 8000d10:	20800015 	stw	r2,0(r4)
//       printf("writing ................column: %d, row : %d,  times %d \n", column, row, count);
         IOWR(TEST_SLAVE_0_BASE, 0, matrix_32[row][column]);
 8000d14:	017ffff4 	movhi	r5,65535
 8000d18:	295f7a04 	addi	r5,r5,32232
 8000d1c:	2f0b883a 	add	r5,r5,fp
 8000d20:	28800017 	ldw	r2,0(r5)
 8000d24:	100691fa 	slli	r3,r2,7
 8000d28:	013ffff4 	movhi	r4,65535
 8000d2c:	211f7b04 	addi	r4,r4,32236
 8000d30:	2709883a 	add	r4,r4,fp
 8000d34:	20800017 	ldw	r2,0(r4)
 8000d38:	1885883a 	add	r2,r3,r2
 8000d3c:	1085883a 	add	r2,r2,r2
 8000d40:	1085883a 	add	r2,r2,r2
 8000d44:	017ffff4 	movhi	r5,65535
 8000d48:	295f7a04 	addi	r5,r5,32232
 8000d4c:	2f0b883a 	add	r5,r5,fp
 8000d50:	2885883a 	add	r2,r5,r2
 8000d54:	10800404 	addi	r2,r2,16
 8000d58:	10800017 	ldw	r2,0(r2)
 8000d5c:	1007883a 	mov	r3,r2
 8000d60:	00840434 	movhi	r2,4112
 8000d64:	10844504 	addi	r2,r2,4372
 8000d68:	10c00035 	stwio	r3,0(r2)
   }

//   printf("ready write................\n");
   int count = 0;
   for(column = 0; column < 128; column++) {
      for(row = 0; row < 65; row++) {
 8000d6c:	00fffff4 	movhi	r3,65535
 8000d70:	18df7a04 	addi	r3,r3,32232
 8000d74:	1f07883a 	add	r3,r3,fp
 8000d78:	18800017 	ldw	r2,0(r3)
 8000d7c:	10800044 	addi	r2,r2,1
 8000d80:	013ffff4 	movhi	r4,65535
 8000d84:	211f7a04 	addi	r4,r4,32232
 8000d88:	2709883a 	add	r4,r4,fp
 8000d8c:	20800015 	stw	r2,0(r4)
 8000d90:	017ffff4 	movhi	r5,65535
 8000d94:	295f7a04 	addi	r5,r5,32232
 8000d98:	2f0b883a 	add	r5,r5,fp
 8000d9c:	28800017 	ldw	r2,0(r5)
 8000da0:	10801050 	cmplti	r2,r2,65
 8000da4:	103fd21e 	bne	r2,zero,8000cf0 <__ram_exceptions_end+0xf7f80ab0>
     }
   }

//   printf("ready write................\n");
   int count = 0;
   for(column = 0; column < 128; column++) {
 8000da8:	00fffff4 	movhi	r3,65535
 8000dac:	18df7b04 	addi	r3,r3,32236
 8000db0:	1f07883a 	add	r3,r3,fp
 8000db4:	18800017 	ldw	r2,0(r3)
 8000db8:	10800044 	addi	r2,r2,1
 8000dbc:	013ffff4 	movhi	r4,65535
 8000dc0:	211f7b04 	addi	r4,r4,32236
 8000dc4:	2709883a 	add	r4,r4,fp
 8000dc8:	20800015 	stw	r2,0(r4)
 8000dcc:	017ffff4 	movhi	r5,65535
 8000dd0:	295f7b04 	addi	r5,r5,32236
 8000dd4:	2f0b883a 	add	r5,r5,fp
 8000dd8:	28800017 	ldw	r2,0(r5)
 8000ddc:	10802010 	cmplti	r2,r2,128
 8000de0:	103fbe1e 	bne	r2,zero,8000cdc <__ram_exceptions_end+0xf7f80a9c>
//       printf("writing ................column: %d, row : %d,  times %d \n", column, row, count);
         IOWR(TEST_SLAVE_0_BASE, 0, matrix_32[row][column]);
      }
   }

   alt_u32 tmp = 0;
 8000de4:	00bffff4 	movhi	r2,65535
 8000de8:	109f7d04 	addi	r2,r2,32244
 8000dec:	1705883a 	add	r2,r2,fp
 8000df0:	10000015 	stw	zero,0(r2)
//   printf("ready read................\n");

   //printf("  Collecting the result...\n");
   for(row = 0; row < 128; row ++) {
 8000df4:	00fffff4 	movhi	r3,65535
 8000df8:	18df7a04 	addi	r3,r3,32232
 8000dfc:	1f07883a 	add	r3,r3,fp
 8000e00:	18000015 	stw	zero,0(r3)
 8000e04:	00003706 	br	8000ee4 <mat_mul+0x3f4>
//     printf("reading ................. row : %d\n", row);
      tmp = IORD(TEST_SLAVE_0_BASE, 0);
 8000e08:	00840434 	movhi	r2,4112
 8000e0c:	10844504 	addi	r2,r2,4372
 8000e10:	10800037 	ldwio	r2,0(r2)
 8000e14:	013ffff4 	movhi	r4,65535
 8000e18:	211f7d04 	addi	r4,r4,32244
 8000e1c:	2709883a 	add	r4,r4,fp
 8000e20:	20800015 	stw	r2,0(r4)
//      printf("finish r row : %d \n", row);
      *(result + 2*row) = (alt_16)((tmp << 16) >> 16);
 8000e24:	017ffff4 	movhi	r5,65535
 8000e28:	295f7a04 	addi	r5,r5,32232
 8000e2c:	2f0b883a 	add	r5,r5,fp
 8000e30:	28800017 	ldw	r2,0(r5)
 8000e34:	1085883a 	add	r2,r2,r2
 8000e38:	1085883a 	add	r2,r2,r2
 8000e3c:	1007883a 	mov	r3,r2
 8000e40:	00a08514 	movui	r2,33300
 8000e44:	013ffff4 	movhi	r4,65535
 8000e48:	211f7a04 	addi	r4,r4,32232
 8000e4c:	2709883a 	add	r4,r4,fp
 8000e50:	2085883a 	add	r2,r4,r2
 8000e54:	10800017 	ldw	r2,0(r2)
 8000e58:	10c5883a 	add	r2,r2,r3
 8000e5c:	017ffff4 	movhi	r5,65535
 8000e60:	295f7d04 	addi	r5,r5,32244
 8000e64:	2f0b883a 	add	r5,r5,fp
 8000e68:	28c00017 	ldw	r3,0(r5)
 8000e6c:	10c0000d 	sth	r3,0(r2)
      *(result + 2*row + 1) = (alt_16)(tmp >> 16);
 8000e70:	00fffff4 	movhi	r3,65535
 8000e74:	18df7a04 	addi	r3,r3,32232
 8000e78:	1f07883a 	add	r3,r3,fp
 8000e7c:	18800017 	ldw	r2,0(r3)
 8000e80:	1085883a 	add	r2,r2,r2
 8000e84:	1085883a 	add	r2,r2,r2
 8000e88:	10800084 	addi	r2,r2,2
 8000e8c:	00e08514 	movui	r3,33300
 8000e90:	013ffff4 	movhi	r4,65535
 8000e94:	211f7a04 	addi	r4,r4,32232
 8000e98:	2709883a 	add	r4,r4,fp
 8000e9c:	20c7883a 	add	r3,r4,r3
 8000ea0:	18c00017 	ldw	r3,0(r3)
 8000ea4:	1885883a 	add	r2,r3,r2
 8000ea8:	017ffff4 	movhi	r5,65535
 8000eac:	295f7d04 	addi	r5,r5,32244
 8000eb0:	2f0b883a 	add	r5,r5,fp
 8000eb4:	28c00017 	ldw	r3,0(r5)
 8000eb8:	1806d43a 	srli	r3,r3,16
 8000ebc:	10c0000d 	sth	r3,0(r2)

   alt_u32 tmp = 0;
//   printf("ready read................\n");

   //printf("  Collecting the result...\n");
   for(row = 0; row < 128; row ++) {
 8000ec0:	00fffff4 	movhi	r3,65535
 8000ec4:	18df7a04 	addi	r3,r3,32232
 8000ec8:	1f07883a 	add	r3,r3,fp
 8000ecc:	18800017 	ldw	r2,0(r3)
 8000ed0:	10800044 	addi	r2,r2,1
 8000ed4:	013ffff4 	movhi	r4,65535
 8000ed8:	211f7a04 	addi	r4,r4,32232
 8000edc:	2709883a 	add	r4,r4,fp
 8000ee0:	20800015 	stw	r2,0(r4)
 8000ee4:	017ffff4 	movhi	r5,65535
 8000ee8:	295f7a04 	addi	r5,r5,32232
 8000eec:	2f0b883a 	add	r5,r5,fp
 8000ef0:	28800017 	ldw	r2,0(r5)
 8000ef4:	10802010 	cmplti	r2,r2,128
 8000ef8:	103fc31e 	bne	r2,zero,8000e08 <__ram_exceptions_end+0xf7f80bc8>
      //printBinary(*(result + 2* row+1), 0, 16);
   }
//   printf("finish read................\n");


};
 8000efc:	e037883a 	mov	sp,fp
 8000f00:	dfc00117 	ldw	ra,4(sp)
 8000f04:	df000017 	ldw	fp,0(sp)
 8000f08:	dec00204 	addi	sp,sp,8
 8000f0c:	f800283a 	ret

08000f10 <conv>:
void conv( alt_u8 * data_mat, int image_h, int image_w,
   alt_u8 * weight_mat, int filter_height, int filter_weight, int filter_num, alt_u8 * temp_fmap, alt_16 * output_mat){
 8000f10:	defffe04 	addi	sp,sp,-8
 8000f14:	dfc00115 	stw	ra,4(sp)
 8000f18:	df000015 	stw	fp,0(sp)
 8000f1c:	d839883a 	mov	fp,sp
 8000f20:	023ffff4 	movhi	r8,65535
 8000f24:	421f5104 	addi	r8,r8,32068
 8000f28:	da37883a 	add	sp,sp,r8
 8000f2c:	00a0aa14 	movui	r2,33448
 8000f30:	00fffff4 	movhi	r3,65535
 8000f34:	18df5204 	addi	r3,r3,32072
 8000f38:	1f07883a 	add	r3,r3,fp
 8000f3c:	1885883a 	add	r2,r3,r2
 8000f40:	11000015 	stw	r4,0(r2)
 8000f44:	00a0ab14 	movui	r2,33452
 8000f48:	013ffff4 	movhi	r4,65535
 8000f4c:	211f5204 	addi	r4,r4,32072
 8000f50:	2709883a 	add	r4,r4,fp
 8000f54:	2085883a 	add	r2,r4,r2
 8000f58:	11400015 	stw	r5,0(r2)
 8000f5c:	00a0ac14 	movui	r2,33456
 8000f60:	017ffff4 	movhi	r5,65535
 8000f64:	295f5204 	addi	r5,r5,32072
 8000f68:	2f0b883a 	add	r5,r5,fp
 8000f6c:	2885883a 	add	r2,r5,r2
 8000f70:	11800015 	stw	r6,0(r2)
 8000f74:	00a0ad14 	movui	r2,33460
 8000f78:	01bffff4 	movhi	r6,65535
 8000f7c:	319f5204 	addi	r6,r6,32072
 8000f80:	370d883a 	add	r6,r6,fp
 8000f84:	3085883a 	add	r2,r6,r2
 8000f88:	11c00015 	stw	r7,0(r2)
   int flatten_num = image_h*image_w;
 8000f8c:	00a0ab14 	movui	r2,33452
 8000f90:	013ffff4 	movhi	r4,65535
 8000f94:	211f5204 	addi	r4,r4,32072
 8000f98:	2709883a 	add	r4,r4,fp
 8000f9c:	2087883a 	add	r3,r4,r2
 8000fa0:	00a0ac14 	movui	r2,33456
 8000fa4:	017ffff4 	movhi	r5,65535
 8000fa8:	295f5204 	addi	r5,r5,32072
 8000fac:	2f0b883a 	add	r5,r5,fp
 8000fb0:	2885883a 	add	r2,r5,r2
 8000fb4:	18c00017 	ldw	r3,0(r3)
 8000fb8:	10800017 	ldw	r2,0(r2)
 8000fbc:	1885383a 	mul	r2,r3,r2
 8000fc0:	01bffff4 	movhi	r6,65535
 8000fc4:	319f5b04 	addi	r6,r6,32108
 8000fc8:	370d883a 	add	r6,r6,fp
 8000fcc:	30800015 	stw	r2,0(r6)
   alt_u8 mat_block[257][128] = {0};
 8000fd0:	00bffff4 	movhi	r2,65535
 8000fd4:	109f5c04 	addi	r2,r2,32112
 8000fd8:	e087883a 	add	r3,fp,r2
 8000fdc:	00a02014 	movui	r2,32896
 8000fe0:	1809883a 	mov	r4,r3
 8000fe4:	000b883a 	mov	r5,zero
 8000fe8:	100d883a 	mov	r6,r2
 8000fec:	8003e880 	call	8003e88 <memset>
   alt_16 result[256] = {0};
 8000ff0:	00a02a14 	movui	r2,32936
 8000ff4:	00fffff4 	movhi	r3,65535
 8000ff8:	18df5204 	addi	r3,r3,32072
 8000ffc:	1f07883a 	add	r3,r3,fp
 8001000:	1885883a 	add	r2,r3,r2
 8001004:	1007883a 	mov	r3,r2
 8001008:	00808004 	movi	r2,512
 800100c:	1809883a 	mov	r4,r3
 8001010:	000b883a 	mov	r5,zero
 8001014:	100d883a 	mov	r6,r2
 8001018:	8003e880 	call	8003e88 <memset>
   alt_u8 * d_ptr; d_ptr = data_mat;
 800101c:	00a0aa14 	movui	r2,33448
 8001020:	013ffff4 	movhi	r4,65535
 8001024:	211f5204 	addi	r4,r4,32072
 8001028:	2709883a 	add	r4,r4,fp
 800102c:	2085883a 	add	r2,r4,r2
 8001030:	10800017 	ldw	r2,0(r2)
 8001034:	017ffff4 	movhi	r5,65535
 8001038:	295f5204 	addi	r5,r5,32072
 800103c:	2f0b883a 	add	r5,r5,fp
 8001040:	28800015 	stw	r2,0(r5)
   alt_u8 * f_ptr; f_ptr = weight_mat;
 8001044:	00a0ad14 	movui	r2,33460
 8001048:	01bffff4 	movhi	r6,65535
 800104c:	319f5204 	addi	r6,r6,32072
 8001050:	370d883a 	add	r6,r6,fp
 8001054:	3085883a 	add	r2,r6,r2
 8001058:	10800017 	ldw	r2,0(r2)
 800105c:	00fffff4 	movhi	r3,65535
 8001060:	18df5304 	addi	r3,r3,32076
 8001064:	1f07883a 	add	r3,r3,fp
 8001068:	18800015 	stw	r2,0(r3)
   int i=0, db=0, fb=0, r=0, c=0, result_c=0, counter = 0;
 800106c:	013ffff4 	movhi	r4,65535
 8001070:	211f5404 	addi	r4,r4,32080
 8001074:	2709883a 	add	r4,r4,fp
 8001078:	20000015 	stw	zero,0(r4)
 800107c:	017ffff4 	movhi	r5,65535
 8001080:	295f5504 	addi	r5,r5,32084
 8001084:	2f0b883a 	add	r5,r5,fp
 8001088:	28000015 	stw	zero,0(r5)
 800108c:	01bffff4 	movhi	r6,65535
 8001090:	319f5604 	addi	r6,r6,32088
 8001094:	370d883a 	add	r6,r6,fp
 8001098:	30000015 	stw	zero,0(r6)
 800109c:	00bffff4 	movhi	r2,65535
 80010a0:	109f5704 	addi	r2,r2,32092
 80010a4:	1705883a 	add	r2,r2,fp
 80010a8:	10000015 	stw	zero,0(r2)
 80010ac:	00fffff4 	movhi	r3,65535
 80010b0:	18df5804 	addi	r3,r3,32096
 80010b4:	1f07883a 	add	r3,r3,fp
 80010b8:	18000015 	stw	zero,0(r3)
 80010bc:	013ffff4 	movhi	r4,65535
 80010c0:	211f5904 	addi	r4,r4,32100
 80010c4:	2709883a 	add	r4,r4,fp
 80010c8:	20000015 	stw	zero,0(r4)
 80010cc:	017ffff4 	movhi	r5,65535
 80010d0:	295f5a04 	addi	r5,r5,32104
 80010d4:	2f0b883a 	add	r5,r5,fp
 80010d8:	28000015 	stw	zero,0(r5)

   // for every colume in filter
   for(i=0 ; i < filter_num ; ++i){
 80010dc:	01bffff4 	movhi	r6,65535
 80010e0:	319f5404 	addi	r6,r6,32080
 80010e4:	370d883a 	add	r6,r6,fp
 80010e8:	30000015 	stw	zero,0(r6)
 80010ec:	0001e606 	br	8001888 <conv+0x978>
      // for every block in filter(filter block)
      for(fb=0; fb < (filter_height * filter_weight - 1)/128 + 1; ++fb){
 80010f0:	00bffff4 	movhi	r2,65535
 80010f4:	109f5604 	addi	r2,r2,32088
 80010f8:	1705883a 	add	r2,r2,fp
 80010fc:	10000015 	stw	zero,0(r2)
 8001100:	0001cb06 	br	8001830 <conv+0x920>
         //set the initial ptr
         d_ptr = data_mat + fb*128;
 8001104:	00fffff4 	movhi	r3,65535
 8001108:	18df5604 	addi	r3,r3,32088
 800110c:	1f07883a 	add	r3,r3,fp
 8001110:	18800017 	ldw	r2,0(r3)
 8001114:	100491fa 	slli	r2,r2,7
 8001118:	1007883a 	mov	r3,r2
 800111c:	00a0aa14 	movui	r2,33448
 8001120:	013ffff4 	movhi	r4,65535
 8001124:	211f5204 	addi	r4,r4,32072
 8001128:	2709883a 	add	r4,r4,fp
 800112c:	2085883a 	add	r2,r4,r2
 8001130:	10800017 	ldw	r2,0(r2)
 8001134:	10c5883a 	add	r2,r2,r3
 8001138:	017ffff4 	movhi	r5,65535
 800113c:	295f5204 	addi	r5,r5,32072
 8001140:	2f0b883a 	add	r5,r5,fp
 8001144:	28800015 	stw	r2,0(r5)
         f_ptr = weight_mat + fb*filter_num*128 +i;
 8001148:	01bffff4 	movhi	r6,65535
 800114c:	319f5604 	addi	r6,r6,32088
 8001150:	370d883a 	add	r6,r6,fp
 8001154:	30c00017 	ldw	r3,0(r6)
 8001158:	e0800417 	ldw	r2,16(fp)
 800115c:	1885383a 	mul	r2,r3,r2
 8001160:	100491fa 	slli	r2,r2,7
 8001164:	1007883a 	mov	r3,r2
 8001168:	013ffff4 	movhi	r4,65535
 800116c:	211f5404 	addi	r4,r4,32080
 8001170:	2709883a 	add	r4,r4,fp
 8001174:	20800017 	ldw	r2,0(r4)
 8001178:	1885883a 	add	r2,r3,r2
 800117c:	00e0ad14 	movui	r3,33460
 8001180:	017ffff4 	movhi	r5,65535
 8001184:	295f5204 	addi	r5,r5,32072
 8001188:	2f0b883a 	add	r5,r5,fp
 800118c:	28c7883a 	add	r3,r5,r3
 8001190:	18c00017 	ldw	r3,0(r3)
 8001194:	1885883a 	add	r2,r3,r2
 8001198:	01bffff4 	movhi	r6,65535
 800119c:	319f5304 	addi	r6,r6,32076
 80011a0:	370d883a 	add	r6,r6,fp
 80011a4:	30800015 	stw	r2,0(r6)

         // for every block per colume in data(data block)
         for(db=0; db < (flatten_num - 1)/256 + 1; ++db){
 80011a8:	00bffff4 	movhi	r2,65535
 80011ac:	109f5504 	addi	r2,r2,32084
 80011b0:	1705883a 	add	r2,r2,fp
 80011b4:	10000015 	stw	zero,0(r2)
 80011b8:	00018606 	br	80017d4 <conv+0x8c4>
            // one block
            // put every row in data into mat_block
            for( r=0; r<256; ++r ){
 80011bc:	00fffff4 	movhi	r3,65535
 80011c0:	18df5704 	addi	r3,r3,32092
 80011c4:	1f07883a 	add	r3,r3,fp
 80011c8:	18000015 	stw	zero,0(r3)
 80011cc:	0000b306 	br	800149c <conv+0x58c>
               // when data row is smaller then flatten_num
               if( db*256+r < flatten_num ){
 80011d0:	013ffff4 	movhi	r4,65535
 80011d4:	211f5504 	addi	r4,r4,32084
 80011d8:	2709883a 	add	r4,r4,fp
 80011dc:	20800017 	ldw	r2,0(r4)
 80011e0:	1006923a 	slli	r3,r2,8
 80011e4:	017ffff4 	movhi	r5,65535
 80011e8:	295f5704 	addi	r5,r5,32092
 80011ec:	2f0b883a 	add	r5,r5,fp
 80011f0:	28800017 	ldw	r2,0(r5)
 80011f4:	1887883a 	add	r3,r3,r2
 80011f8:	01bffff4 	movhi	r6,65535
 80011fc:	319f5b04 	addi	r6,r6,32108
 8001200:	370d883a 	add	r6,r6,fp
 8001204:	30800017 	ldw	r2,0(r6)
 8001208:	1880770e 	bge	r3,r2,80013e8 <conv+0x4d8>
                  // put every element in data into mat_block
                  for(c=0 ; c<128 ; ++c){
 800120c:	00bffff4 	movhi	r2,65535
 8001210:	109f5804 	addi	r2,r2,32096
 8001214:	1705883a 	add	r2,r2,fp
 8001218:	10000015 	stw	zero,0(r2)
 800121c:	00004606 	br	8001338 <conv+0x428>
                     // when data colume is smaller then filter_height*filter_weight
                     if( fb*128+c < filter_height*filter_weight ){
 8001220:	00fffff4 	movhi	r3,65535
 8001224:	18df5604 	addi	r3,r3,32088
 8001228:	1f07883a 	add	r3,r3,fp
 800122c:	18800017 	ldw	r2,0(r3)
 8001230:	100691fa 	slli	r3,r2,7
 8001234:	013ffff4 	movhi	r4,65535
 8001238:	211f5804 	addi	r4,r4,32096
 800123c:	2709883a 	add	r4,r4,fp
 8001240:	20800017 	ldw	r2,0(r4)
 8001244:	1887883a 	add	r3,r3,r2
 8001248:	e1000217 	ldw	r4,8(fp)
 800124c:	e0800317 	ldw	r2,12(fp)
 8001250:	2085383a 	mul	r2,r4,r2
 8001254:	18801f0e 	bge	r3,r2,80012d4 <conv+0x3c4>
                        mat_block[r][c] = *(d_ptr);
 8001258:	017ffff4 	movhi	r5,65535
 800125c:	295f5204 	addi	r5,r5,32072
 8001260:	2f0b883a 	add	r5,r5,fp
 8001264:	28800017 	ldw	r2,0(r5)
 8001268:	10c00003 	ldbu	r3,0(r2)
 800126c:	01bffff4 	movhi	r6,65535
 8001270:	319f5704 	addi	r6,r6,32092
 8001274:	370d883a 	add	r6,r6,fp
 8001278:	30800017 	ldw	r2,0(r6)
 800127c:	100491fa 	slli	r2,r2,7
 8001280:	017ffff4 	movhi	r5,65535
 8001284:	295f5204 	addi	r5,r5,32072
 8001288:	2f0b883a 	add	r5,r5,fp
 800128c:	2889883a 	add	r4,r5,r2
 8001290:	01bffff4 	movhi	r6,65535
 8001294:	319f5804 	addi	r6,r6,32096
 8001298:	370d883a 	add	r6,r6,fp
 800129c:	30800017 	ldw	r2,0(r6)
 80012a0:	2085883a 	add	r2,r4,r2
 80012a4:	10800a04 	addi	r2,r2,40
 80012a8:	10c00005 	stb	r3,0(r2)
//                        counter++;
//                        printSignBinary(*d_ptr, 16);
//                        printf("\ncointer %d\n", counter);
                        d_ptr = d_ptr+1;
 80012ac:	00fffff4 	movhi	r3,65535
 80012b0:	18df5204 	addi	r3,r3,32072
 80012b4:	1f07883a 	add	r3,r3,fp
 80012b8:	18800017 	ldw	r2,0(r3)
 80012bc:	10800044 	addi	r2,r2,1
 80012c0:	013ffff4 	movhi	r4,65535
 80012c4:	211f5204 	addi	r4,r4,32072
 80012c8:	2709883a 	add	r4,r4,fp
 80012cc:	20800015 	stw	r2,0(r4)
 80012d0:	00001006 	br	8001314 <conv+0x404>
                     }
                     // else = 0
                     else{

                        mat_block[r][c] = (alt_u8)0;
 80012d4:	017ffff4 	movhi	r5,65535
 80012d8:	295f5704 	addi	r5,r5,32092
 80012dc:	2f0b883a 	add	r5,r5,fp
 80012e0:	28800017 	ldw	r2,0(r5)
 80012e4:	100491fa 	slli	r2,r2,7
 80012e8:	01bffff4 	movhi	r6,65535
 80012ec:	319f5204 	addi	r6,r6,32072
 80012f0:	370d883a 	add	r6,r6,fp
 80012f4:	3087883a 	add	r3,r6,r2
 80012f8:	013ffff4 	movhi	r4,65535
 80012fc:	211f5804 	addi	r4,r4,32096
 8001300:	2709883a 	add	r4,r4,fp
 8001304:	20800017 	ldw	r2,0(r4)
 8001308:	1885883a 	add	r2,r3,r2
 800130c:	10800a04 	addi	r2,r2,40
 8001310:	10000005 	stb	zero,0(r2)
            // put every row in data into mat_block
            for( r=0; r<256; ++r ){
               // when data row is smaller then flatten_num
               if( db*256+r < flatten_num ){
                  // put every element in data into mat_block
                  for(c=0 ; c<128 ; ++c){
 8001314:	017ffff4 	movhi	r5,65535
 8001318:	295f5804 	addi	r5,r5,32096
 800131c:	2f0b883a 	add	r5,r5,fp
 8001320:	28800017 	ldw	r2,0(r5)
 8001324:	10800044 	addi	r2,r2,1
 8001328:	01bffff4 	movhi	r6,65535
 800132c:	319f5804 	addi	r6,r6,32096
 8001330:	370d883a 	add	r6,r6,fp
 8001334:	30800015 	stw	r2,0(r6)
 8001338:	00fffff4 	movhi	r3,65535
 800133c:	18df5804 	addi	r3,r3,32096
 8001340:	1f07883a 	add	r3,r3,fp
 8001344:	18800017 	ldw	r2,0(r3)
 8001348:	10802010 	cmplti	r2,r2,128
 800134c:	103fb41e 	bne	r2,zero,8001220 <__ram_exceptions_end+0xf7f80fe0>
                     else{

                        mat_block[r][c] = (alt_u8)0;
                     }
                  }
                  d_ptr = data_mat + db*256*filter_height*filter_weight + (r+1)*filter_height*filter_weight + fb*128;
 8001350:	013ffff4 	movhi	r4,65535
 8001354:	211f5504 	addi	r4,r4,32084
 8001358:	2709883a 	add	r4,r4,fp
 800135c:	20800017 	ldw	r2,0(r4)
 8001360:	1006923a 	slli	r3,r2,8
 8001364:	e0800217 	ldw	r2,8(fp)
 8001368:	1887383a 	mul	r3,r3,r2
 800136c:	e0800317 	ldw	r2,12(fp)
 8001370:	1885383a 	mul	r2,r3,r2
 8001374:	1009883a 	mov	r4,r2
 8001378:	017ffff4 	movhi	r5,65535
 800137c:	295f5704 	addi	r5,r5,32092
 8001380:	2f0b883a 	add	r5,r5,fp
 8001384:	28800017 	ldw	r2,0(r5)
 8001388:	10c00044 	addi	r3,r2,1
 800138c:	e0800217 	ldw	r2,8(fp)
 8001390:	1887383a 	mul	r3,r3,r2
 8001394:	e0800317 	ldw	r2,12(fp)
 8001398:	1885383a 	mul	r2,r3,r2
 800139c:	2085883a 	add	r2,r4,r2
 80013a0:	01bffff4 	movhi	r6,65535
 80013a4:	319f5604 	addi	r6,r6,32088
 80013a8:	370d883a 	add	r6,r6,fp
 80013ac:	30c00017 	ldw	r3,0(r6)
 80013b0:	180691fa 	slli	r3,r3,7
 80013b4:	10c5883a 	add	r2,r2,r3
 80013b8:	00e0aa14 	movui	r3,33448
 80013bc:	013ffff4 	movhi	r4,65535
 80013c0:	211f5204 	addi	r4,r4,32072
 80013c4:	2709883a 	add	r4,r4,fp
 80013c8:	20c7883a 	add	r3,r4,r3
 80013cc:	18c00017 	ldw	r3,0(r3)
 80013d0:	1885883a 	add	r2,r3,r2
 80013d4:	017ffff4 	movhi	r5,65535
 80013d8:	295f5204 	addi	r5,r5,32072
 80013dc:	2f0b883a 	add	r5,r5,fp
 80013e0:	28800015 	stw	r2,0(r5)
 80013e4:	00002406 	br	8001478 <conv+0x568>
               }
               // else = 0
               else{
                  for(c=0 ; c<128 ; ++c){ mat_block[r][c] = (alt_u8)0; }
 80013e8:	01bffff4 	movhi	r6,65535
 80013ec:	319f5804 	addi	r6,r6,32096
 80013f0:	370d883a 	add	r6,r6,fp
 80013f4:	30000015 	stw	zero,0(r6)
 80013f8:	00001906 	br	8001460 <conv+0x550>
 80013fc:	00fffff4 	movhi	r3,65535
 8001400:	18df5704 	addi	r3,r3,32092
 8001404:	1f07883a 	add	r3,r3,fp
 8001408:	18800017 	ldw	r2,0(r3)
 800140c:	100491fa 	slli	r2,r2,7
 8001410:	013ffff4 	movhi	r4,65535
 8001414:	211f5204 	addi	r4,r4,32072
 8001418:	2709883a 	add	r4,r4,fp
 800141c:	2087883a 	add	r3,r4,r2
 8001420:	017ffff4 	movhi	r5,65535
 8001424:	295f5804 	addi	r5,r5,32096
 8001428:	2f0b883a 	add	r5,r5,fp
 800142c:	28800017 	ldw	r2,0(r5)
 8001430:	1885883a 	add	r2,r3,r2
 8001434:	10800a04 	addi	r2,r2,40
 8001438:	10000005 	stb	zero,0(r2)
 800143c:	01bffff4 	movhi	r6,65535
 8001440:	319f5804 	addi	r6,r6,32096
 8001444:	370d883a 	add	r6,r6,fp
 8001448:	30800017 	ldw	r2,0(r6)
 800144c:	10800044 	addi	r2,r2,1
 8001450:	00fffff4 	movhi	r3,65535
 8001454:	18df5804 	addi	r3,r3,32096
 8001458:	1f07883a 	add	r3,r3,fp
 800145c:	18800015 	stw	r2,0(r3)
 8001460:	013ffff4 	movhi	r4,65535
 8001464:	211f5804 	addi	r4,r4,32096
 8001468:	2709883a 	add	r4,r4,fp
 800146c:	20800017 	ldw	r2,0(r4)
 8001470:	10802010 	cmplti	r2,r2,128
 8001474:	103fe11e 	bne	r2,zero,80013fc <__ram_exceptions_end+0xf7f811bc>

         // for every block per colume in data(data block)
         for(db=0; db < (flatten_num - 1)/256 + 1; ++db){
            // one block
            // put every row in data into mat_block
            for( r=0; r<256; ++r ){
 8001478:	017ffff4 	movhi	r5,65535
 800147c:	295f5704 	addi	r5,r5,32092
 8001480:	2f0b883a 	add	r5,r5,fp
 8001484:	28800017 	ldw	r2,0(r5)
 8001488:	10800044 	addi	r2,r2,1
 800148c:	01bffff4 	movhi	r6,65535
 8001490:	319f5704 	addi	r6,r6,32092
 8001494:	370d883a 	add	r6,r6,fp
 8001498:	30800015 	stw	r2,0(r6)
 800149c:	00fffff4 	movhi	r3,65535
 80014a0:	18df5704 	addi	r3,r3,32092
 80014a4:	1f07883a 	add	r3,r3,fp
 80014a8:	18800017 	ldw	r2,0(r3)
 80014ac:	10804010 	cmplti	r2,r2,256
 80014b0:	103f471e 	bne	r2,zero,80011d0 <__ram_exceptions_end+0xf7f80f90>
                  for(c=0 ; c<128 ; ++c){ mat_block[r][c] = (alt_u8)0; }
               }
            }

            // put one colume in filter into mat_block
            counter = 0;
 80014b4:	013ffff4 	movhi	r4,65535
 80014b8:	211f5a04 	addi	r4,r4,32104
 80014bc:	2709883a 	add	r4,r4,fp
 80014c0:	20000015 	stw	zero,0(r4)
            for(c=0 ; c<128 ; ++c){
 80014c4:	017ffff4 	movhi	r5,65535
 80014c8:	295f5804 	addi	r5,r5,32096
 80014cc:	2f0b883a 	add	r5,r5,fp
 80014d0:	28000015 	stw	zero,0(r5)
 80014d4:	00004606 	br	80015f0 <conv+0x6e0>
               if(fb*128+c<(filter_height*filter_weight)){
 80014d8:	01bffff4 	movhi	r6,65535
 80014dc:	319f5604 	addi	r6,r6,32088
 80014e0:	370d883a 	add	r6,r6,fp
 80014e4:	30800017 	ldw	r2,0(r6)
 80014e8:	100691fa 	slli	r3,r2,7
 80014ec:	013ffff4 	movhi	r4,65535
 80014f0:	211f5804 	addi	r4,r4,32096
 80014f4:	2709883a 	add	r4,r4,fp
 80014f8:	20800017 	ldw	r2,0(r4)
 80014fc:	1887883a 	add	r3,r3,r2
 8001500:	e1000217 	ldw	r4,8(fp)
 8001504:	e0800317 	ldw	r2,12(fp)
 8001508:	2085383a 	mul	r2,r4,r2
 800150c:	1880240e 	bge	r3,r2,80015a0 <conv+0x690>
                  mat_block[256][c] = *(f_ptr);
 8001510:	017ffff4 	movhi	r5,65535
 8001514:	295f5304 	addi	r5,r5,32076
 8001518:	2f0b883a 	add	r5,r5,fp
 800151c:	28800017 	ldw	r2,0(r5)
 8001520:	10c00003 	ldbu	r3,0(r2)
 8001524:	00a00a14 	movui	r2,32808
 8001528:	01bffff4 	movhi	r6,65535
 800152c:	319f5204 	addi	r6,r6,32072
 8001530:	370d883a 	add	r6,r6,fp
 8001534:	3089883a 	add	r4,r6,r2
 8001538:	017ffff4 	movhi	r5,65535
 800153c:	295f5804 	addi	r5,r5,32096
 8001540:	2f0b883a 	add	r5,r5,fp
 8001544:	28800017 	ldw	r2,0(r5)
 8001548:	2085883a 	add	r2,r4,r2
 800154c:	10c00005 	stb	r3,0(r2)
//                  printSignBinary(*f_ptr, 128);
//                  printf("\n");
                  f_ptr = f_ptr + filter_num;
 8001550:	e0800417 	ldw	r2,16(fp)
 8001554:	01bffff4 	movhi	r6,65535
 8001558:	319f5304 	addi	r6,r6,32076
 800155c:	370d883a 	add	r6,r6,fp
 8001560:	30c00017 	ldw	r3,0(r6)
 8001564:	1885883a 	add	r2,r3,r2
 8001568:	00fffff4 	movhi	r3,65535
 800156c:	18df5304 	addi	r3,r3,32076
 8001570:	1f07883a 	add	r3,r3,fp
 8001574:	18800015 	stw	r2,0(r3)
                  counter ++;
 8001578:	013ffff4 	movhi	r4,65535
 800157c:	211f5a04 	addi	r4,r4,32104
 8001580:	2709883a 	add	r4,r4,fp
 8001584:	20800017 	ldw	r2,0(r4)
 8001588:	10800044 	addi	r2,r2,1
 800158c:	017ffff4 	movhi	r5,65535
 8001590:	295f5a04 	addi	r5,r5,32104
 8001594:	2f0b883a 	add	r5,r5,fp
 8001598:	28800015 	stw	r2,0(r5)
 800159c:	00000b06 	br	80015cc <conv+0x6bc>
               }
               else
//            	  printf("1\n");
                  mat_block[256][c] = (alt_u8)(0);
 80015a0:	00a00a14 	movui	r2,32808
 80015a4:	01bffff4 	movhi	r6,65535
 80015a8:	319f5204 	addi	r6,r6,32072
 80015ac:	370d883a 	add	r6,r6,fp
 80015b0:	3087883a 	add	r3,r6,r2
 80015b4:	013ffff4 	movhi	r4,65535
 80015b8:	211f5804 	addi	r4,r4,32096
 80015bc:	2709883a 	add	r4,r4,fp
 80015c0:	20800017 	ldw	r2,0(r4)
 80015c4:	1885883a 	add	r2,r3,r2
 80015c8:	10000005 	stb	zero,0(r2)
               }
            }

            // put one colume in filter into mat_block
            counter = 0;
            for(c=0 ; c<128 ; ++c){
 80015cc:	017ffff4 	movhi	r5,65535
 80015d0:	295f5804 	addi	r5,r5,32096
 80015d4:	2f0b883a 	add	r5,r5,fp
 80015d8:	28800017 	ldw	r2,0(r5)
 80015dc:	10800044 	addi	r2,r2,1
 80015e0:	01bffff4 	movhi	r6,65535
 80015e4:	319f5804 	addi	r6,r6,32096
 80015e8:	370d883a 	add	r6,r6,fp
 80015ec:	30800015 	stw	r2,0(r6)
 80015f0:	00fffff4 	movhi	r3,65535
 80015f4:	18df5804 	addi	r3,r3,32096
 80015f8:	1f07883a 	add	r3,r3,fp
 80015fc:	18800017 	ldw	r2,0(r3)
 8001600:	10802010 	cmplti	r2,r2,128
 8001604:	103fb41e 	bne	r2,zero,80014d8 <__ram_exceptions_end+0xf7f81298>
            }
//            printf("MatBlock.............................................................................\n");
//            if(i==0 && fb==0 && db==0) {printMatrix(mat_block, 257, 128, 1, 16);}

            //calculate by mat_mul
            mat_mul(mat_block, result);
 8001608:	013ffff4 	movhi	r4,65535
 800160c:	211f5c04 	addi	r4,r4,32112
 8001610:	e107883a 	add	r3,fp,r4
 8001614:	00a02a14 	movui	r2,32936
 8001618:	017ffff4 	movhi	r5,65535
 800161c:	295f5204 	addi	r5,r5,32072
 8001620:	2f0b883a 	add	r5,r5,fp
 8001624:	2885883a 	add	r2,r5,r2
 8001628:	1809883a 	mov	r4,r3
 800162c:	100b883a 	mov	r5,r2
 8001630:	8000af00 	call	8000af0 <mat_mul>
//               for(fuck=0 ; fuck<256 ; ++fuck){
//                   printf("num = %d, ans = %f ", fuck, (double)(*(result+fuck)));
//            	   printf("\n");
//               }
//            }
            for(result_c=0 ; result_c<256 ; ++result_c){
 8001634:	01bffff4 	movhi	r6,65535
 8001638:	319f5904 	addi	r6,r6,32100
 800163c:	370d883a 	add	r6,r6,fp
 8001640:	30000015 	stw	zero,0(r6)
 8001644:	00005406 	br	8001798 <conv+0x888>
               if(db*256+result_c<flatten_num)
 8001648:	00fffff4 	movhi	r3,65535
 800164c:	18df5504 	addi	r3,r3,32084
 8001650:	1f07883a 	add	r3,r3,fp
 8001654:	18800017 	ldw	r2,0(r3)
 8001658:	1006923a 	slli	r3,r2,8
 800165c:	013ffff4 	movhi	r4,65535
 8001660:	211f5904 	addi	r4,r4,32100
 8001664:	2709883a 	add	r4,r4,fp
 8001668:	20800017 	ldw	r2,0(r4)
 800166c:	1887883a 	add	r3,r3,r2
 8001670:	017ffff4 	movhi	r5,65535
 8001674:	295f5b04 	addi	r5,r5,32108
 8001678:	2f0b883a 	add	r5,r5,fp
 800167c:	28800017 	ldw	r2,0(r5)
 8001680:	18803c0e 	bge	r3,r2,8001774 <conv+0x864>
                  *(output_mat+(db*256+result_c)*filter_num + i) += (result[result_c]);
 8001684:	01bffff4 	movhi	r6,65535
 8001688:	319f5504 	addi	r6,r6,32084
 800168c:	370d883a 	add	r6,r6,fp
 8001690:	30800017 	ldw	r2,0(r6)
 8001694:	1006923a 	slli	r3,r2,8
 8001698:	013ffff4 	movhi	r4,65535
 800169c:	211f5904 	addi	r4,r4,32100
 80016a0:	2709883a 	add	r4,r4,fp
 80016a4:	20800017 	ldw	r2,0(r4)
 80016a8:	1887883a 	add	r3,r3,r2
 80016ac:	e0800417 	ldw	r2,16(fp)
 80016b0:	1885383a 	mul	r2,r3,r2
 80016b4:	1007883a 	mov	r3,r2
 80016b8:	017ffff4 	movhi	r5,65535
 80016bc:	295f5404 	addi	r5,r5,32080
 80016c0:	2f0b883a 	add	r5,r5,fp
 80016c4:	28800017 	ldw	r2,0(r5)
 80016c8:	1885883a 	add	r2,r3,r2
 80016cc:	1085883a 	add	r2,r2,r2
 80016d0:	1007883a 	mov	r3,r2
 80016d4:	e0800617 	ldw	r2,24(fp)
 80016d8:	10c7883a 	add	r3,r2,r3
 80016dc:	01bffff4 	movhi	r6,65535
 80016e0:	319f5504 	addi	r6,r6,32084
 80016e4:	370d883a 	add	r6,r6,fp
 80016e8:	30800017 	ldw	r2,0(r6)
 80016ec:	1008923a 	slli	r4,r2,8
 80016f0:	017ffff4 	movhi	r5,65535
 80016f4:	295f5904 	addi	r5,r5,32100
 80016f8:	2f0b883a 	add	r5,r5,fp
 80016fc:	28800017 	ldw	r2,0(r5)
 8001700:	2089883a 	add	r4,r4,r2
 8001704:	e0800417 	ldw	r2,16(fp)
 8001708:	2085383a 	mul	r2,r4,r2
 800170c:	1009883a 	mov	r4,r2
 8001710:	01bffff4 	movhi	r6,65535
 8001714:	319f5404 	addi	r6,r6,32080
 8001718:	370d883a 	add	r6,r6,fp
 800171c:	30800017 	ldw	r2,0(r6)
 8001720:	2085883a 	add	r2,r4,r2
 8001724:	1085883a 	add	r2,r2,r2
 8001728:	1009883a 	mov	r4,r2
 800172c:	e0800617 	ldw	r2,24(fp)
 8001730:	1105883a 	add	r2,r2,r4
 8001734:	1080000b 	ldhu	r2,0(r2)
 8001738:	100b883a 	mov	r5,r2
 800173c:	00a02a14 	movui	r2,32936
 8001740:	01bffff4 	movhi	r6,65535
 8001744:	319f5204 	addi	r6,r6,32072
 8001748:	370d883a 	add	r6,r6,fp
 800174c:	3089883a 	add	r4,r6,r2
 8001750:	01bffff4 	movhi	r6,65535
 8001754:	319f5904 	addi	r6,r6,32100
 8001758:	370d883a 	add	r6,r6,fp
 800175c:	30800017 	ldw	r2,0(r6)
 8001760:	1085883a 	add	r2,r2,r2
 8001764:	2085883a 	add	r2,r4,r2
 8001768:	1080000b 	ldhu	r2,0(r2)
 800176c:	2885883a 	add	r2,r5,r2
 8001770:	1880000d 	sth	r2,0(r3)
//               for(fuck=0 ; fuck<256 ; ++fuck){
//                   printf("num = %d, ans = %f ", fuck, (double)(*(result+fuck)));
//            	   printf("\n");
//               }
//            }
            for(result_c=0 ; result_c<256 ; ++result_c){
 8001774:	00fffff4 	movhi	r3,65535
 8001778:	18df5904 	addi	r3,r3,32100
 800177c:	1f07883a 	add	r3,r3,fp
 8001780:	18800017 	ldw	r2,0(r3)
 8001784:	10800044 	addi	r2,r2,1
 8001788:	013ffff4 	movhi	r4,65535
 800178c:	211f5904 	addi	r4,r4,32100
 8001790:	2709883a 	add	r4,r4,fp
 8001794:	20800015 	stw	r2,0(r4)
 8001798:	017ffff4 	movhi	r5,65535
 800179c:	295f5904 	addi	r5,r5,32100
 80017a0:	2f0b883a 	add	r5,r5,fp
 80017a4:	28800017 	ldw	r2,0(r5)
 80017a8:	10804010 	cmplti	r2,r2,256
 80017ac:	103fa61e 	bne	r2,zero,8001648 <__ram_exceptions_end+0xf7f81408>
         //set the initial ptr
         d_ptr = data_mat + fb*128;
         f_ptr = weight_mat + fb*filter_num*128 +i;

         // for every block per colume in data(data block)
         for(db=0; db < (flatten_num - 1)/256 + 1; ++db){
 80017b0:	01bffff4 	movhi	r6,65535
 80017b4:	319f5504 	addi	r6,r6,32084
 80017b8:	370d883a 	add	r6,r6,fp
 80017bc:	30800017 	ldw	r2,0(r6)
 80017c0:	10800044 	addi	r2,r2,1
 80017c4:	00fffff4 	movhi	r3,65535
 80017c8:	18df5504 	addi	r3,r3,32084
 80017cc:	1f07883a 	add	r3,r3,fp
 80017d0:	18800015 	stw	r2,0(r3)
 80017d4:	013ffff4 	movhi	r4,65535
 80017d8:	211f5b04 	addi	r4,r4,32108
 80017dc:	2709883a 	add	r4,r4,fp
 80017e0:	20800017 	ldw	r2,0(r4)
 80017e4:	10bfffc4 	addi	r2,r2,-1
 80017e8:	1000010e 	bge	r2,zero,80017f0 <conv+0x8e0>
 80017ec:	10803fc4 	addi	r2,r2,255
 80017f0:	1005d23a 	srai	r2,r2,8
 80017f4:	10800044 	addi	r2,r2,1
 80017f8:	017ffff4 	movhi	r5,65535
 80017fc:	295f5504 	addi	r5,r5,32084
 8001800:	2f0b883a 	add	r5,r5,fp
 8001804:	28c00017 	ldw	r3,0(r5)
 8001808:	18be6c16 	blt	r3,r2,80011bc <__ram_exceptions_end+0xf7f80f7c>
   int i=0, db=0, fb=0, r=0, c=0, result_c=0, counter = 0;

   // for every colume in filter
   for(i=0 ; i < filter_num ; ++i){
      // for every block in filter(filter block)
      for(fb=0; fb < (filter_height * filter_weight - 1)/128 + 1; ++fb){
 800180c:	01bffff4 	movhi	r6,65535
 8001810:	319f5604 	addi	r6,r6,32088
 8001814:	370d883a 	add	r6,r6,fp
 8001818:	30800017 	ldw	r2,0(r6)
 800181c:	10800044 	addi	r2,r2,1
 8001820:	00fffff4 	movhi	r3,65535
 8001824:	18df5604 	addi	r3,r3,32088
 8001828:	1f07883a 	add	r3,r3,fp
 800182c:	18800015 	stw	r2,0(r3)
 8001830:	e0c00217 	ldw	r3,8(fp)
 8001834:	e0800317 	ldw	r2,12(fp)
 8001838:	1885383a 	mul	r2,r3,r2
 800183c:	10bfffc4 	addi	r2,r2,-1
 8001840:	1000010e 	bge	r2,zero,8001848 <conv+0x938>
 8001844:	10801fc4 	addi	r2,r2,127
 8001848:	1005d1fa 	srai	r2,r2,7
 800184c:	10800044 	addi	r2,r2,1
 8001850:	013ffff4 	movhi	r4,65535
 8001854:	211f5604 	addi	r4,r4,32088
 8001858:	2709883a 	add	r4,r4,fp
 800185c:	20c00017 	ldw	r3,0(r4)
 8001860:	18be2816 	blt	r3,r2,8001104 <__ram_exceptions_end+0xf7f80ec4>
   alt_u8 * d_ptr; d_ptr = data_mat;
   alt_u8 * f_ptr; f_ptr = weight_mat;
   int i=0, db=0, fb=0, r=0, c=0, result_c=0, counter = 0;

   // for every colume in filter
   for(i=0 ; i < filter_num ; ++i){
 8001864:	017ffff4 	movhi	r5,65535
 8001868:	295f5404 	addi	r5,r5,32080
 800186c:	2f0b883a 	add	r5,r5,fp
 8001870:	28800017 	ldw	r2,0(r5)
 8001874:	10800044 	addi	r2,r2,1
 8001878:	01bffff4 	movhi	r6,65535
 800187c:	319f5404 	addi	r6,r6,32080
 8001880:	370d883a 	add	r6,r6,fp
 8001884:	30800015 	stw	r2,0(r6)
 8001888:	00bffff4 	movhi	r2,65535
 800188c:	109f5404 	addi	r2,r2,32080
 8001890:	1705883a 	add	r2,r2,fp
 8001894:	10c00017 	ldw	r3,0(r2)
 8001898:	e0800417 	ldw	r2,16(fp)
 800189c:	18be1416 	blt	r3,r2,80010f0 <__ram_exceptions_end+0xf7f80eb0>
//   printf("================================== result ======================================\n");
//   for(c = 0; c < 121; c++)
//	   printf("%f ", (double)(*(output_mat+c)) / 16.0);

   //recovery to image
   matrix_to_imageCube(output_mat, temp_fmap, image_h, image_w, filter_num);
 80018a0:	00a0ab14 	movui	r2,33452
 80018a4:	013ffff4 	movhi	r4,65535
 80018a8:	211f5204 	addi	r4,r4,32072
 80018ac:	2709883a 	add	r4,r4,fp
 80018b0:	2087883a 	add	r3,r4,r2
 80018b4:	00a0ac14 	movui	r2,33456
 80018b8:	017ffff4 	movhi	r5,65535
 80018bc:	295f5204 	addi	r5,r5,32072
 80018c0:	2f0b883a 	add	r5,r5,fp
 80018c4:	2885883a 	add	r2,r5,r2
 80018c8:	e1000417 	ldw	r4,16(fp)
 80018cc:	d9000015 	stw	r4,0(sp)
 80018d0:	e1000617 	ldw	r4,24(fp)
 80018d4:	e1400517 	ldw	r5,20(fp)
 80018d8:	19800017 	ldw	r6,0(r3)
 80018dc:	11c00017 	ldw	r7,0(r2)
 80018e0:	80009b00 	call	80009b0 <matrix_to_imageCube>
   //printMatrix(temp_fmap, 40, 31, 16);

};
 80018e4:	e037883a 	mov	sp,fp
 80018e8:	dfc00117 	ldw	ra,4(sp)
 80018ec:	df000017 	ldw	fp,0(sp)
 80018f0:	dec00204 	addi	sp,sp,8
 80018f4:	f800283a 	ret

080018f8 <max_pooling>:

void max_pooling(alt_u8* input_fmap, alt_u8* output_fmap, int height, int width, int depth){
 80018f8:	defff504 	addi	sp,sp,-44
 80018fc:	df000a15 	stw	fp,40(sp)
 8001900:	df000a04 	addi	fp,sp,40
 8001904:	e13ffc15 	stw	r4,-16(fp)
 8001908:	e17ffd15 	stw	r5,-12(fp)
 800190c:	e1bffe15 	stw	r6,-8(fp)
 8001910:	e1ffff15 	stw	r7,-4(fp)
   int w = 0, h = 0, d = 0,count=0;
 8001914:	e03ff615 	stw	zero,-40(fp)
 8001918:	e03ff715 	stw	zero,-36(fp)
 800191c:	e03ff815 	stw	zero,-32(fp)
 8001920:	e03ff915 	stw	zero,-28(fp)
   while(h + 1 < height)
 8001924:	00007d06 	br	8001b1c <max_pooling+0x224>
   {
      while(w + 1 < width)
 8001928:	00007306 	br	8001af8 <max_pooling+0x200>
      {
         while(d < depth)
 800192c:	00006b06 	br	8001adc <max_pooling+0x1e4>
         {
            int i = 1;
 8001930:	00800044 	movi	r2,1
 8001934:	e0bffa15 	stw	r2,-24(fp)
            alt_u8 temp = 0;
 8001938:	e03ffb05 	stb	zero,-20(fp)
            temp = *(input_fmap + h * depth * width + w * depth + d);
 800193c:	e0fff717 	ldw	r3,-36(fp)
 8001940:	e0800117 	ldw	r2,4(fp)
 8001944:	1887383a 	mul	r3,r3,r2
 8001948:	e0bfff17 	ldw	r2,-4(fp)
 800194c:	1885383a 	mul	r2,r3,r2
 8001950:	1009883a 	mov	r4,r2
 8001954:	e0fff617 	ldw	r3,-40(fp)
 8001958:	e0800117 	ldw	r2,4(fp)
 800195c:	1885383a 	mul	r2,r3,r2
 8001960:	2087883a 	add	r3,r4,r2
 8001964:	e0bff817 	ldw	r2,-32(fp)
 8001968:	1885883a 	add	r2,r3,r2
 800196c:	e0fffc17 	ldw	r3,-16(fp)
 8001970:	1885883a 	add	r2,r3,r2
 8001974:	10800003 	ldbu	r2,0(r2)
 8001978:	e0bffb05 	stb	r2,-20(fp)
            for (i = 1; i < 4; i++){
 800197c:	00800044 	movi	r2,1
 8001980:	e0bffa15 	stw	r2,-24(fp)
 8001984:	00004706 	br	8001aa4 <max_pooling+0x1ac>
               if (temp >= *(input_fmap + (h + i/2) * depth * width + (w + i%2) * depth + d))
 8001988:	e0bffa17 	ldw	r2,-24(fp)
 800198c:	1006d7fa 	srli	r3,r2,31
 8001990:	1885883a 	add	r2,r3,r2
 8001994:	1005d07a 	srai	r2,r2,1
 8001998:	1007883a 	mov	r3,r2
 800199c:	e0bff717 	ldw	r2,-36(fp)
 80019a0:	1887883a 	add	r3,r3,r2
 80019a4:	e0800117 	ldw	r2,4(fp)
 80019a8:	1887383a 	mul	r3,r3,r2
 80019ac:	e0bfff17 	ldw	r2,-4(fp)
 80019b0:	1885383a 	mul	r2,r3,r2
 80019b4:	1009883a 	mov	r4,r2
 80019b8:	e0fffa17 	ldw	r3,-24(fp)
 80019bc:	00a00034 	movhi	r2,32768
 80019c0:	10800044 	addi	r2,r2,1
 80019c4:	1884703a 	and	r2,r3,r2
 80019c8:	1000040e 	bge	r2,zero,80019dc <max_pooling+0xe4>
 80019cc:	10bfffc4 	addi	r2,r2,-1
 80019d0:	00ffff84 	movi	r3,-2
 80019d4:	10c4b03a 	or	r2,r2,r3
 80019d8:	10800044 	addi	r2,r2,1
 80019dc:	1007883a 	mov	r3,r2
 80019e0:	e0bff617 	ldw	r2,-40(fp)
 80019e4:	1887883a 	add	r3,r3,r2
 80019e8:	e0800117 	ldw	r2,4(fp)
 80019ec:	1885383a 	mul	r2,r3,r2
 80019f0:	2087883a 	add	r3,r4,r2
 80019f4:	e0bff817 	ldw	r2,-32(fp)
 80019f8:	1885883a 	add	r2,r3,r2
 80019fc:	e0fffc17 	ldw	r3,-16(fp)
 8001a00:	1885883a 	add	r2,r3,r2
 8001a04:	10800003 	ldbu	r2,0(r2)
 8001a08:	10803fcc 	andi	r2,r2,255
 8001a0c:	e0fffb03 	ldbu	r3,-20(fp)
 8001a10:	18802136 	bltu	r3,r2,8001a98 <max_pooling+0x1a0>
                  temp = *(input_fmap + (h + i/2) * depth * width + (w + i%2) * depth + d);
 8001a14:	e0bffa17 	ldw	r2,-24(fp)
 8001a18:	1006d7fa 	srli	r3,r2,31
 8001a1c:	1885883a 	add	r2,r3,r2
 8001a20:	1005d07a 	srai	r2,r2,1
 8001a24:	1007883a 	mov	r3,r2
 8001a28:	e0bff717 	ldw	r2,-36(fp)
 8001a2c:	1887883a 	add	r3,r3,r2
 8001a30:	e0800117 	ldw	r2,4(fp)
 8001a34:	1887383a 	mul	r3,r3,r2
 8001a38:	e0bfff17 	ldw	r2,-4(fp)
 8001a3c:	1885383a 	mul	r2,r3,r2
 8001a40:	1009883a 	mov	r4,r2
 8001a44:	e0fffa17 	ldw	r3,-24(fp)
 8001a48:	00a00034 	movhi	r2,32768
 8001a4c:	10800044 	addi	r2,r2,1
 8001a50:	1884703a 	and	r2,r3,r2
 8001a54:	1000040e 	bge	r2,zero,8001a68 <max_pooling+0x170>
 8001a58:	10bfffc4 	addi	r2,r2,-1
 8001a5c:	00ffff84 	movi	r3,-2
 8001a60:	10c4b03a 	or	r2,r2,r3
 8001a64:	10800044 	addi	r2,r2,1
 8001a68:	1007883a 	mov	r3,r2
 8001a6c:	e0bff617 	ldw	r2,-40(fp)
 8001a70:	1887883a 	add	r3,r3,r2
 8001a74:	e0800117 	ldw	r2,4(fp)
 8001a78:	1885383a 	mul	r2,r3,r2
 8001a7c:	2087883a 	add	r3,r4,r2
 8001a80:	e0bff817 	ldw	r2,-32(fp)
 8001a84:	1885883a 	add	r2,r3,r2
 8001a88:	e0fffc17 	ldw	r3,-16(fp)
 8001a8c:	1885883a 	add	r2,r3,r2
 8001a90:	10800003 	ldbu	r2,0(r2)
 8001a94:	e0bffb05 	stb	r2,-20(fp)
         while(d < depth)
         {
            int i = 1;
            alt_u8 temp = 0;
            temp = *(input_fmap + h * depth * width + w * depth + d);
            for (i = 1; i < 4; i++){
 8001a98:	e0bffa17 	ldw	r2,-24(fp)
 8001a9c:	10800044 	addi	r2,r2,1
 8001aa0:	e0bffa15 	stw	r2,-24(fp)
 8001aa4:	e0bffa17 	ldw	r2,-24(fp)
 8001aa8:	10800110 	cmplti	r2,r2,4
 8001aac:	103fb61e 	bne	r2,zero,8001988 <__ram_exceptions_end+0xf7f81748>
               if (temp >= *(input_fmap + (h + i/2) * depth * width + (w + i%2) * depth + d))
                  temp = *(input_fmap + (h + i/2) * depth * width + (w + i%2) * depth + d);
            }
            *(output_fmap + count) = temp;
 8001ab0:	e0bff917 	ldw	r2,-28(fp)
 8001ab4:	e0fffd17 	ldw	r3,-12(fp)
 8001ab8:	1885883a 	add	r2,r3,r2
 8001abc:	e0fffb03 	ldbu	r3,-20(fp)
 8001ac0:	10c00005 	stb	r3,0(r2)
            count = count + 1;
 8001ac4:	e0bff917 	ldw	r2,-28(fp)
 8001ac8:	10800044 	addi	r2,r2,1
 8001acc:	e0bff915 	stw	r2,-28(fp)
            d = d + 1;
 8001ad0:	e0bff817 	ldw	r2,-32(fp)
 8001ad4:	10800044 	addi	r2,r2,1
 8001ad8:	e0bff815 	stw	r2,-32(fp)
   int w = 0, h = 0, d = 0,count=0;
   while(h + 1 < height)
   {
      while(w + 1 < width)
      {
         while(d < depth)
 8001adc:	e0fff817 	ldw	r3,-32(fp)
 8001ae0:	e0800117 	ldw	r2,4(fp)
 8001ae4:	18bf9216 	blt	r3,r2,8001930 <__ram_exceptions_end+0xf7f816f0>
            }
            *(output_fmap + count) = temp;
            count = count + 1;
            d = d + 1;
         }
         w = w + 2;
 8001ae8:	e0bff617 	ldw	r2,-40(fp)
 8001aec:	10800084 	addi	r2,r2,2
 8001af0:	e0bff615 	stw	r2,-40(fp)
         d = 0;
 8001af4:	e03ff815 	stw	zero,-32(fp)

void max_pooling(alt_u8* input_fmap, alt_u8* output_fmap, int height, int width, int depth){
   int w = 0, h = 0, d = 0,count=0;
   while(h + 1 < height)
   {
      while(w + 1 < width)
 8001af8:	e0bff617 	ldw	r2,-40(fp)
 8001afc:	10c00044 	addi	r3,r2,1
 8001b00:	e0bfff17 	ldw	r2,-4(fp)
 8001b04:	18bf8916 	blt	r3,r2,800192c <__ram_exceptions_end+0xf7f816ec>
            d = d + 1;
         }
         w = w + 2;
         d = 0;
      }
      h = h + 2;
 8001b08:	e0bff717 	ldw	r2,-36(fp)
 8001b0c:	10800084 	addi	r2,r2,2
 8001b10:	e0bff715 	stw	r2,-36(fp)
      w = 0;
 8001b14:	e03ff615 	stw	zero,-40(fp)
      d = 0;
 8001b18:	e03ff815 	stw	zero,-32(fp)

};

void max_pooling(alt_u8* input_fmap, alt_u8* output_fmap, int height, int width, int depth){
   int w = 0, h = 0, d = 0,count=0;
   while(h + 1 < height)
 8001b1c:	e0bff717 	ldw	r2,-36(fp)
 8001b20:	10c00044 	addi	r3,r2,1
 8001b24:	e0bffe17 	ldw	r2,-8(fp)
 8001b28:	18bf7f16 	blt	r3,r2,8001928 <__ram_exceptions_end+0xf7f816e8>
      }
      h = h + 2;
      w = 0;
      d = 0;
   }
};
 8001b2c:	e037883a 	mov	sp,fp
 8001b30:	df000017 	ldw	fp,0(sp)
 8001b34:	dec00104 	addi	sp,sp,4
 8001b38:	f800283a 	ret

08001b3c <mean_pooling>:
void mean_pooling(alt_u8* input_fmap, alt_u8* output_fmap, int height, int width, int depth){
 8001b3c:	defff504 	addi	sp,sp,-44
 8001b40:	df000a15 	stw	fp,40(sp)
 8001b44:	df000a04 	addi	fp,sp,40
 8001b48:	e13ffc15 	stw	r4,-16(fp)
 8001b4c:	e17ffd15 	stw	r5,-12(fp)
 8001b50:	e1bffe15 	stw	r6,-8(fp)
 8001b54:	e1ffff15 	stw	r7,-4(fp)
   int w = 0, h = 0, d = 0,count=0;
 8001b58:	e03ff615 	stw	zero,-40(fp)
 8001b5c:	e03ff715 	stw	zero,-36(fp)
 8001b60:	e03ff815 	stw	zero,-32(fp)
 8001b64:	e03ff915 	stw	zero,-28(fp)
   while(h + 1 < height)
 8001b68:	00005f06 	br	8001ce8 <mean_pooling+0x1ac>
   {
      while(w + 1 < width)
 8001b6c:	00005506 	br	8001cc4 <mean_pooling+0x188>
      {
         while(d < depth)
 8001b70:	00004d06 	br	8001ca8 <mean_pooling+0x16c>
         {
            int i = 1;
 8001b74:	00800044 	movi	r2,1
 8001b78:	e0bffa15 	stw	r2,-24(fp)
            alt_u16 temp = 0;
 8001b7c:	e03ffb0d 	sth	zero,-20(fp)
            temp = (alt_u16)(*(input_fmap + h * depth * width + w * depth + d));
 8001b80:	e0fff717 	ldw	r3,-36(fp)
 8001b84:	e0800117 	ldw	r2,4(fp)
 8001b88:	1887383a 	mul	r3,r3,r2
 8001b8c:	e0bfff17 	ldw	r2,-4(fp)
 8001b90:	1885383a 	mul	r2,r3,r2
 8001b94:	1009883a 	mov	r4,r2
 8001b98:	e0fff617 	ldw	r3,-40(fp)
 8001b9c:	e0800117 	ldw	r2,4(fp)
 8001ba0:	1885383a 	mul	r2,r3,r2
 8001ba4:	2087883a 	add	r3,r4,r2
 8001ba8:	e0bff817 	ldw	r2,-32(fp)
 8001bac:	1885883a 	add	r2,r3,r2
 8001bb0:	e0fffc17 	ldw	r3,-16(fp)
 8001bb4:	1885883a 	add	r2,r3,r2
 8001bb8:	10800003 	ldbu	r2,0(r2)
 8001bbc:	10803fcc 	andi	r2,r2,255
 8001bc0:	e0bffb0d 	sth	r2,-20(fp)
            for (i = 1; i < 4; i++){
 8001bc4:	00800044 	movi	r2,1
 8001bc8:	e0bffa15 	stw	r2,-24(fp)
 8001bcc:	00002706 	br	8001c6c <mean_pooling+0x130>
               temp = temp + (alt_u16) (*(input_fmap + (h + i/2) * depth * width + (w + i%2) * depth + d));
 8001bd0:	e0bffa17 	ldw	r2,-24(fp)
 8001bd4:	1006d7fa 	srli	r3,r2,31
 8001bd8:	1885883a 	add	r2,r3,r2
 8001bdc:	1005d07a 	srai	r2,r2,1
 8001be0:	1007883a 	mov	r3,r2
 8001be4:	e0bff717 	ldw	r2,-36(fp)
 8001be8:	1887883a 	add	r3,r3,r2
 8001bec:	e0800117 	ldw	r2,4(fp)
 8001bf0:	1887383a 	mul	r3,r3,r2
 8001bf4:	e0bfff17 	ldw	r2,-4(fp)
 8001bf8:	1885383a 	mul	r2,r3,r2
 8001bfc:	1009883a 	mov	r4,r2
 8001c00:	e0fffa17 	ldw	r3,-24(fp)
 8001c04:	00a00034 	movhi	r2,32768
 8001c08:	10800044 	addi	r2,r2,1
 8001c0c:	1884703a 	and	r2,r3,r2
 8001c10:	1000040e 	bge	r2,zero,8001c24 <mean_pooling+0xe8>
 8001c14:	10bfffc4 	addi	r2,r2,-1
 8001c18:	00ffff84 	movi	r3,-2
 8001c1c:	10c4b03a 	or	r2,r2,r3
 8001c20:	10800044 	addi	r2,r2,1
 8001c24:	1007883a 	mov	r3,r2
 8001c28:	e0bff617 	ldw	r2,-40(fp)
 8001c2c:	1887883a 	add	r3,r3,r2
 8001c30:	e0800117 	ldw	r2,4(fp)
 8001c34:	1885383a 	mul	r2,r3,r2
 8001c38:	2087883a 	add	r3,r4,r2
 8001c3c:	e0bff817 	ldw	r2,-32(fp)
 8001c40:	1885883a 	add	r2,r3,r2
 8001c44:	e0fffc17 	ldw	r3,-16(fp)
 8001c48:	1885883a 	add	r2,r3,r2
 8001c4c:	10800003 	ldbu	r2,0(r2)
 8001c50:	10c03fcc 	andi	r3,r2,255
 8001c54:	e0bffb0b 	ldhu	r2,-20(fp)
 8001c58:	1885883a 	add	r2,r3,r2
 8001c5c:	e0bffb0d 	sth	r2,-20(fp)
         while(d < depth)
         {
            int i = 1;
            alt_u16 temp = 0;
            temp = (alt_u16)(*(input_fmap + h * depth * width + w * depth + d));
            for (i = 1; i < 4; i++){
 8001c60:	e0bffa17 	ldw	r2,-24(fp)
 8001c64:	10800044 	addi	r2,r2,1
 8001c68:	e0bffa15 	stw	r2,-24(fp)
 8001c6c:	e0bffa17 	ldw	r2,-24(fp)
 8001c70:	10800110 	cmplti	r2,r2,4
 8001c74:	103fd61e 	bne	r2,zero,8001bd0 <__ram_exceptions_end+0xf7f81990>
               temp = temp + (alt_u16) (*(input_fmap + (h + i/2) * depth * width + (w + i%2) * depth + d));
            }
            //printf("%f\n", temp);
            *(output_fmap + count) = (((alt_u8)(temp >> 2)));
 8001c78:	e0bff917 	ldw	r2,-28(fp)
 8001c7c:	e0fffd17 	ldw	r3,-12(fp)
 8001c80:	1885883a 	add	r2,r3,r2
 8001c84:	e0fffb0b 	ldhu	r3,-20(fp)
 8001c88:	1806d0ba 	srli	r3,r3,2
 8001c8c:	10c00005 	stb	r3,0(r2)
            count = count + 1;
 8001c90:	e0bff917 	ldw	r2,-28(fp)
 8001c94:	10800044 	addi	r2,r2,1
 8001c98:	e0bff915 	stw	r2,-28(fp)
            d = d + 1;
 8001c9c:	e0bff817 	ldw	r2,-32(fp)
 8001ca0:	10800044 	addi	r2,r2,1
 8001ca4:	e0bff815 	stw	r2,-32(fp)
   int w = 0, h = 0, d = 0,count=0;
   while(h + 1 < height)
   {
      while(w + 1 < width)
      {
         while(d < depth)
 8001ca8:	e0fff817 	ldw	r3,-32(fp)
 8001cac:	e0800117 	ldw	r2,4(fp)
 8001cb0:	18bfb016 	blt	r3,r2,8001b74 <__ram_exceptions_end+0xf7f81934>
            //printf("%f\n", temp);
            *(output_fmap + count) = (((alt_u8)(temp >> 2)));
            count = count + 1;
            d = d + 1;
         }
         w = w + 2;
 8001cb4:	e0bff617 	ldw	r2,-40(fp)
 8001cb8:	10800084 	addi	r2,r2,2
 8001cbc:	e0bff615 	stw	r2,-40(fp)
         d = 0;
 8001cc0:	e03ff815 	stw	zero,-32(fp)
};
void mean_pooling(alt_u8* input_fmap, alt_u8* output_fmap, int height, int width, int depth){
   int w = 0, h = 0, d = 0,count=0;
   while(h + 1 < height)
   {
      while(w + 1 < width)
 8001cc4:	e0bff617 	ldw	r2,-40(fp)
 8001cc8:	10c00044 	addi	r3,r2,1
 8001ccc:	e0bfff17 	ldw	r2,-4(fp)
 8001cd0:	18bfa716 	blt	r3,r2,8001b70 <__ram_exceptions_end+0xf7f81930>
            d = d + 1;
         }
         w = w + 2;
         d = 0;
      }
      h = h + 2;
 8001cd4:	e0bff717 	ldw	r2,-36(fp)
 8001cd8:	10800084 	addi	r2,r2,2
 8001cdc:	e0bff715 	stw	r2,-36(fp)
      w = 0;
 8001ce0:	e03ff615 	stw	zero,-40(fp)
      d = 0;
 8001ce4:	e03ff815 	stw	zero,-32(fp)
      d = 0;
   }
};
void mean_pooling(alt_u8* input_fmap, alt_u8* output_fmap, int height, int width, int depth){
   int w = 0, h = 0, d = 0,count=0;
   while(h + 1 < height)
 8001ce8:	e0bff717 	ldw	r2,-36(fp)
 8001cec:	10c00044 	addi	r3,r2,1
 8001cf0:	e0bffe17 	ldw	r2,-8(fp)
 8001cf4:	18bf9d16 	blt	r3,r2,8001b6c <__ram_exceptions_end+0xf7f8192c>
      }
      h = h + 2;
      w = 0;
      d = 0;
   }
};
 8001cf8:	e037883a 	mov	sp,fp
 8001cfc:	df000017 	ldw	fp,0(sp)
 8001d00:	dec00104 	addi	sp,sp,4
 8001d04:	f800283a 	ret

08001d08 <conv_interface_1>:
void conv_interface_1(alt_u8* first_conv, alt_u8* spectrum, alt_u8* con2_fmap){
 8001d08:	defffe04 	addi	sp,sp,-8
 8001d0c:	dfc00115 	stw	ra,4(sp)
 8001d10:	df000015 	stw	fp,0(sp)
 8001d14:	d839883a 	mov	fp,sp
 8001d18:	023fffb4 	movhi	r8,65534
 8001d1c:	42202004 	addi	r8,r8,-32640
 8001d20:	da37883a 	add	sp,sp,r8
 8001d24:	008000b4 	movhi	r2,2
 8001d28:	109fd804 	addi	r2,r2,32608
 8001d2c:	00ffffb4 	movhi	r3,65534
 8001d30:	18e02504 	addi	r3,r3,-32620
 8001d34:	1f07883a 	add	r3,r3,fp
 8001d38:	1885883a 	add	r2,r3,r2
 8001d3c:	11000015 	stw	r4,0(r2)
 8001d40:	008000b4 	movhi	r2,2
 8001d44:	109fd904 	addi	r2,r2,32612
 8001d48:	013fffb4 	movhi	r4,65534
 8001d4c:	21202504 	addi	r4,r4,-32620
 8001d50:	2709883a 	add	r4,r4,fp
 8001d54:	2085883a 	add	r2,r4,r2
 8001d58:	11400015 	stw	r5,0(r2)
 8001d5c:	008000b4 	movhi	r2,2
 8001d60:	109fda04 	addi	r2,r2,32616
 8001d64:	00ffffb4 	movhi	r3,65534
 8001d68:	18e02504 	addi	r3,r3,-32620
 8001d6c:	1f07883a 	add	r3,r3,fp
 8001d70:	1885883a 	add	r2,r3,r2
 8001d74:	11800015 	stw	r6,0(r2)
   /* Convolution 1 */
   alt_u8 flatten_mat1[1240][100] = {0};
 8001d78:	00ffffb4 	movhi	r3,65534
 8001d7c:	18e02504 	addi	r3,r3,-32620
 8001d80:	1f07883a 	add	r3,r3,fp
 8001d84:	008000b4 	movhi	r2,2
 8001d88:	10b91804 	addi	r2,r2,-7072
 8001d8c:	1809883a 	mov	r4,r3
 8001d90:	000b883a 	mov	r5,zero
 8001d94:	100d883a 	mov	r6,r2
 8001d98:	8003e880 	call	8003e88 <memset>
   alt_16 output_mat[1240][16] = {0};
 8001d9c:	008000b4 	movhi	r2,2
 8001da0:	10b91804 	addi	r2,r2,-7072
 8001da4:	013fffb4 	movhi	r4,65534
 8001da8:	21202504 	addi	r4,r4,-32620
 8001dac:	2709883a 	add	r4,r4,fp
 8001db0:	2085883a 	add	r2,r4,r2
 8001db4:	1007883a 	mov	r3,r2
 8001db8:	00a6c014 	movui	r2,39680
 8001dbc:	1809883a 	mov	r4,r3
 8001dc0:	000b883a 	mov	r5,zero
 8001dc4:	100d883a 	mov	r6,r2
 8001dc8:	8003e880 	call	8003e88 <memset>
   flatten_matrix(flatten_mat1, spectrum, 49, 40, 10, 10, 1);
 8001dcc:	008000b4 	movhi	r2,2
 8001dd0:	109fd904 	addi	r2,r2,32612
 8001dd4:	00ffffb4 	movhi	r3,65534
 8001dd8:	18e02504 	addi	r3,r3,-32620
 8001ddc:	1f07883a 	add	r3,r3,fp
 8001de0:	1885883a 	add	r2,r3,r2
 8001de4:	00c00284 	movi	r3,10
 8001de8:	d8c00015 	stw	r3,0(sp)
 8001dec:	00c00284 	movi	r3,10
 8001df0:	d8c00115 	stw	r3,4(sp)
 8001df4:	00c00044 	movi	r3,1
 8001df8:	d8c00215 	stw	r3,8(sp)
 8001dfc:	013fffb4 	movhi	r4,65534
 8001e00:	21202504 	addi	r4,r4,-32620
 8001e04:	2709883a 	add	r4,r4,fp
 8001e08:	11400017 	ldw	r5,0(r2)
 8001e0c:	01800c44 	movi	r6,49
 8001e10:	01c00a04 	movi	r7,40
 8001e14:	80008000 	call	8000800 <flatten_matrix>
   conv(flatten_mat1, 40, 31, first_conv, 10, 10, 16, con2_fmap, output_mat);
 8001e18:	008000b4 	movhi	r2,2
 8001e1c:	109fd804 	addi	r2,r2,32608
 8001e20:	013fffb4 	movhi	r4,65534
 8001e24:	21202504 	addi	r4,r4,-32620
 8001e28:	2709883a 	add	r4,r4,fp
 8001e2c:	2087883a 	add	r3,r4,r2
 8001e30:	00800284 	movi	r2,10
 8001e34:	d8800015 	stw	r2,0(sp)
 8001e38:	00800284 	movi	r2,10
 8001e3c:	d8800115 	stw	r2,4(sp)
 8001e40:	00800404 	movi	r2,16
 8001e44:	d8800215 	stw	r2,8(sp)
 8001e48:	008000b4 	movhi	r2,2
 8001e4c:	109fda04 	addi	r2,r2,32616
 8001e50:	013fffb4 	movhi	r4,65534
 8001e54:	21202504 	addi	r4,r4,-32620
 8001e58:	2709883a 	add	r4,r4,fp
 8001e5c:	2085883a 	add	r2,r4,r2
 8001e60:	10800017 	ldw	r2,0(r2)
 8001e64:	d8800315 	stw	r2,12(sp)
 8001e68:	008000b4 	movhi	r2,2
 8001e6c:	10b91804 	addi	r2,r2,-7072
 8001e70:	013fffb4 	movhi	r4,65534
 8001e74:	21202504 	addi	r4,r4,-32620
 8001e78:	2709883a 	add	r4,r4,fp
 8001e7c:	2085883a 	add	r2,r4,r2
 8001e80:	d8800415 	stw	r2,16(sp)
 8001e84:	013fffb4 	movhi	r4,65534
 8001e88:	21202504 	addi	r4,r4,-32620
 8001e8c:	2709883a 	add	r4,r4,fp
 8001e90:	01400a04 	movi	r5,40
 8001e94:	018007c4 	movi	r6,31
 8001e98:	19c00017 	ldw	r7,0(r3)
 8001e9c:	8000f100 	call	8000f10 <conv>
};
 8001ea0:	e037883a 	mov	sp,fp
 8001ea4:	dfc00117 	ldw	ra,4(sp)
 8001ea8:	df000017 	ldw	fp,0(sp)
 8001eac:	dec00204 	addi	sp,sp,8
 8001eb0:	f800283a 	ret

08001eb4 <conv_interface_2>:

void conv_interface_2(alt_u8* second_conv, alt_u8* con2_fmap, alt_u8* conv_finish_fmap){
 8001eb4:	defffe04 	addi	sp,sp,-8
 8001eb8:	dfc00115 	stw	ra,4(sp)
 8001ebc:	df000015 	stw	fp,0(sp)
 8001ec0:	d839883a 	mov	fp,sp
 8001ec4:	023ffe74 	movhi	r8,65529
 8001ec8:	42131004 	addi	r8,r8,19520
 8001ecc:	da37883a 	add	sp,sp,r8
 8001ed0:	008001f4 	movhi	r2,7
 8001ed4:	10ace804 	addi	r2,r2,-19552
 8001ed8:	00fffe74 	movhi	r3,65529
 8001edc:	18d31504 	addi	r3,r3,19540
 8001ee0:	1f07883a 	add	r3,r3,fp
 8001ee4:	1885883a 	add	r2,r3,r2
 8001ee8:	11000015 	stw	r4,0(r2)
 8001eec:	008001f4 	movhi	r2,7
 8001ef0:	10ace904 	addi	r2,r2,-19548
 8001ef4:	013ffe74 	movhi	r4,65529
 8001ef8:	21131504 	addi	r4,r4,19540
 8001efc:	2709883a 	add	r4,r4,fp
 8001f00:	2085883a 	add	r2,r4,r2
 8001f04:	11400015 	stw	r5,0(r2)
 8001f08:	008001f4 	movhi	r2,7
 8001f0c:	10acea04 	addi	r2,r2,-19544
 8001f10:	017ffe74 	movhi	r5,65529
 8001f14:	29531504 	addi	r5,r5,19540
 8001f18:	2f0b883a 	add	r5,r5,fp
 8001f1c:	2885883a 	add	r2,r5,r2
 8001f20:	11800015 	stw	r6,0(r2)
   /* Convolution 2 */
   alt_u8 flatten_mat2[972][400] = {0};
 8001f24:	00fffe74 	movhi	r3,65529
 8001f28:	18d31504 	addi	r3,r3,19540
 8001f2c:	1f07883a 	add	r3,r3,fp
 8001f30:	008001b4 	movhi	r2,6
 8001f34:	10bbb004 	addi	r2,r2,-4416
 8001f38:	1809883a 	mov	r4,r3
 8001f3c:	000b883a 	mov	r5,zero
 8001f40:	100d883a 	mov	r6,r2
 8001f44:	8003e880 	call	8003e88 <memset>
   alt_u8  temp_fmap[36][27][16] = {0};
 8001f48:	008001b4 	movhi	r2,6
 8001f4c:	10bbb004 	addi	r2,r2,-4416
 8001f50:	00fffe74 	movhi	r3,65529
 8001f54:	18d31504 	addi	r3,r3,19540
 8001f58:	1f07883a 	add	r3,r3,fp
 8001f5c:	1885883a 	add	r2,r3,r2
 8001f60:	1007883a 	mov	r3,r2
 8001f64:	008f3004 	movi	r2,15552
 8001f68:	1809883a 	mov	r4,r3
 8001f6c:	000b883a 	mov	r5,zero
 8001f70:	100d883a 	mov	r6,r2
 8001f74:	8003e880 	call	8003e88 <memset>
   alt_u8 temp2_fmap[18][13][16] = {0};
 8001f78:	008001b4 	movhi	r2,6
 8001f7c:	108ae004 	addi	r2,r2,11136
 8001f80:	013ffe74 	movhi	r4,65529
 8001f84:	21131504 	addi	r4,r4,19540
 8001f88:	2709883a 	add	r4,r4,fp
 8001f8c:	2085883a 	add	r2,r4,r2
 8001f90:	1007883a 	mov	r3,r2
 8001f94:	0083a804 	movi	r2,3744
 8001f98:	1809883a 	mov	r4,r3
 8001f9c:	000b883a 	mov	r5,zero
 8001fa0:	100d883a 	mov	r6,r2
 8001fa4:	8003e880 	call	8003e88 <memset>
   alt_16 output_mat[972][16] = {0};
 8001fa8:	008001b4 	movhi	r2,6
 8001fac:	108e8804 	addi	r2,r2,14880
 8001fb0:	017ffe74 	movhi	r5,65529
 8001fb4:	29531504 	addi	r5,r5,19540
 8001fb8:	2f0b883a 	add	r5,r5,fp
 8001fbc:	2885883a 	add	r2,r5,r2
 8001fc0:	1007883a 	mov	r3,r2
 8001fc4:	009e6004 	movi	r2,31104
 8001fc8:	1809883a 	mov	r4,r3
 8001fcc:	000b883a 	mov	r5,zero
 8001fd0:	100d883a 	mov	r6,r2
 8001fd4:	8003e880 	call	8003e88 <memset>
   flatten_matrix(flatten_mat2, con2_fmap, 40, 31, 5, 5, 16);
 8001fd8:	008001f4 	movhi	r2,7
 8001fdc:	10ace904 	addi	r2,r2,-19548
 8001fe0:	00fffe74 	movhi	r3,65529
 8001fe4:	18d31504 	addi	r3,r3,19540
 8001fe8:	1f07883a 	add	r3,r3,fp
 8001fec:	1885883a 	add	r2,r3,r2
 8001ff0:	00c00144 	movi	r3,5
 8001ff4:	d8c00015 	stw	r3,0(sp)
 8001ff8:	00c00144 	movi	r3,5
 8001ffc:	d8c00115 	stw	r3,4(sp)
 8002000:	00c00404 	movi	r3,16
 8002004:	d8c00215 	stw	r3,8(sp)
 8002008:	013ffe74 	movhi	r4,65529
 800200c:	21131504 	addi	r4,r4,19540
 8002010:	2709883a 	add	r4,r4,fp
 8002014:	11400017 	ldw	r5,0(r2)
 8002018:	01800a04 	movi	r6,40
 800201c:	01c007c4 	movi	r7,31
 8002020:	80008000 	call	8000800 <flatten_matrix>
   conv(flatten_mat2, 36, 27, second_conv, 1, 400, 16, temp_fmap, output_mat);
 8002024:	008001f4 	movhi	r2,7
 8002028:	10ace804 	addi	r2,r2,-19552
 800202c:	013ffe74 	movhi	r4,65529
 8002030:	21131504 	addi	r4,r4,19540
 8002034:	2709883a 	add	r4,r4,fp
 8002038:	2087883a 	add	r3,r4,r2
 800203c:	00800044 	movi	r2,1
 8002040:	d8800015 	stw	r2,0(sp)
 8002044:	00806404 	movi	r2,400
 8002048:	d8800115 	stw	r2,4(sp)
 800204c:	00800404 	movi	r2,16
 8002050:	d8800215 	stw	r2,8(sp)
 8002054:	008001b4 	movhi	r2,6
 8002058:	10bbb004 	addi	r2,r2,-4416
 800205c:	017ffe74 	movhi	r5,65529
 8002060:	29531504 	addi	r5,r5,19540
 8002064:	2f0b883a 	add	r5,r5,fp
 8002068:	2885883a 	add	r2,r5,r2
 800206c:	d8800315 	stw	r2,12(sp)
 8002070:	008001b4 	movhi	r2,6
 8002074:	108e8804 	addi	r2,r2,14880
 8002078:	013ffe74 	movhi	r4,65529
 800207c:	21131504 	addi	r4,r4,19540
 8002080:	2709883a 	add	r4,r4,fp
 8002084:	2085883a 	add	r2,r4,r2
 8002088:	d8800415 	stw	r2,16(sp)
 800208c:	013ffe74 	movhi	r4,65529
 8002090:	21131504 	addi	r4,r4,19540
 8002094:	2709883a 	add	r4,r4,fp
 8002098:	01400904 	movi	r5,36
 800209c:	018006c4 	movi	r6,27
 80020a0:	19c00017 	ldw	r7,0(r3)
 80020a4:	8000f100 	call	8000f10 <conv>
   printf("Output for second conv: ");
 80020a8:	01020074 	movhi	r4,2049
 80020ac:	2108af04 	addi	r4,r4,8892
 80020b0:	8003fd80 	call	8003fd8 <printf>
   printf("%f\n", (double)((temp_fmap[0][0][5])) / 16.0);
 80020b4:	008001b4 	movhi	r2,6
 80020b8:	10bbb004 	addi	r2,r2,-4416
 80020bc:	017ffe74 	movhi	r5,65529
 80020c0:	29531504 	addi	r5,r5,19540
 80020c4:	2f0b883a 	add	r5,r5,fp
 80020c8:	2885883a 	add	r2,r5,r2
 80020cc:	10800143 	ldbu	r2,5(r2)
 80020d0:	10803fcc 	andi	r2,r2,255
 80020d4:	1009883a 	mov	r4,r2
 80020d8:	8003c540 	call	8003c54 <__floatunsidf>
 80020dc:	100b883a 	mov	r5,r2
 80020e0:	180d883a 	mov	r6,r3
 80020e4:	2809883a 	mov	r4,r5
 80020e8:	300b883a 	mov	r5,r6
 80020ec:	000d883a 	mov	r6,zero
 80020f0:	01d00c34 	movhi	r7,16432
 80020f4:	80032b80 	call	80032b8 <__divdf3>
 80020f8:	1009883a 	mov	r4,r2
 80020fc:	180b883a 	mov	r5,r3
 8002100:	2005883a 	mov	r2,r4
 8002104:	2807883a 	mov	r3,r5
 8002108:	01020074 	movhi	r4,2049
 800210c:	2108b604 	addi	r4,r4,8920
 8002110:	100b883a 	mov	r5,r2
 8002114:	180d883a 	mov	r6,r3
 8002118:	8003fd80 	call	8003fd8 <printf>
   max_pooling(temp_fmap, temp2_fmap, 36, 27, 16);
 800211c:	008001b4 	movhi	r2,6
 8002120:	10bbb004 	addi	r2,r2,-4416
 8002124:	00fffe74 	movhi	r3,65529
 8002128:	18d31504 	addi	r3,r3,19540
 800212c:	1f07883a 	add	r3,r3,fp
 8002130:	1889883a 	add	r4,r3,r2
 8002134:	008001b4 	movhi	r2,6
 8002138:	108ae004 	addi	r2,r2,11136
 800213c:	017ffe74 	movhi	r5,65529
 8002140:	29531504 	addi	r5,r5,19540
 8002144:	2f0b883a 	add	r5,r5,fp
 8002148:	2887883a 	add	r3,r5,r2
 800214c:	00800404 	movi	r2,16
 8002150:	d8800015 	stw	r2,0(sp)
 8002154:	180b883a 	mov	r5,r3
 8002158:	01800904 	movi	r6,36
 800215c:	01c006c4 	movi	r7,27
 8002160:	80018f80 	call	80018f8 <max_pooling>
   mean_pooling(temp2_fmap, conv_finish_fmap, 9, 6, 16);
 8002164:	008001b4 	movhi	r2,6
 8002168:	108ae004 	addi	r2,r2,11136
 800216c:	00fffe74 	movhi	r3,65529
 8002170:	18d31504 	addi	r3,r3,19540
 8002174:	1f07883a 	add	r3,r3,fp
 8002178:	1889883a 	add	r4,r3,r2
 800217c:	008001f4 	movhi	r2,7
 8002180:	10acea04 	addi	r2,r2,-19544
 8002184:	017ffe74 	movhi	r5,65529
 8002188:	29531504 	addi	r5,r5,19540
 800218c:	2f0b883a 	add	r5,r5,fp
 8002190:	2885883a 	add	r2,r5,r2
 8002194:	00c00404 	movi	r3,16
 8002198:	d8c00015 	stw	r3,0(sp)
 800219c:	11400017 	ldw	r5,0(r2)
 80021a0:	01800244 	movi	r6,9
 80021a4:	01c00184 	movi	r7,6
 80021a8:	8001b3c0 	call	8001b3c <mean_pooling>

};
 80021ac:	e037883a 	mov	sp,fp
 80021b0:	dfc00117 	ldw	ra,4(sp)
 80021b4:	df000017 	ldw	fp,0(sp)
 80021b8:	dec00204 	addi	sp,sp,8
 80021bc:	f800283a 	ret

080021c0 <total_conv>:

void total_conv(alt_u8* first_conv, alt_u8* second_conv, alt_u8* spectrum, alt_u8* conv_finish_fmap){
 80021c0:	deec9704 	addi	sp,sp,-19876
 80021c4:	dfd36815 	stw	ra,19872(sp)
 80021c8:	df136715 	stw	fp,19868(sp)
 80021cc:	df136704 	addi	fp,sp,19868
 80021d0:	e13ffc15 	stw	r4,-16(fp)
 80021d4:	e17ffd15 	stw	r5,-12(fp)
 80021d8:	e1bffe15 	stw	r6,-8(fp)
 80021dc:	e1ffff15 	stw	r7,-4(fp)
   alt_u8  con2_fmap[40][31][16] = {0};
 80021e0:	e0ec9c04 	addi	r3,fp,-19856
 80021e4:	00936004 	movi	r2,19840
 80021e8:	1809883a 	mov	r4,r3
 80021ec:	000b883a 	mov	r5,zero
 80021f0:	100d883a 	mov	r6,r2
 80021f4:	8003e880 	call	8003e88 <memset>
   conv_interface_1( first_conv, spectrum, con2_fmap);
 80021f8:	e0ac9c04 	addi	r2,fp,-19856
 80021fc:	e13ffc17 	ldw	r4,-16(fp)
 8002200:	e17ffe17 	ldw	r5,-8(fp)
 8002204:	100d883a 	mov	r6,r2
 8002208:	8001d080 	call	8001d08 <conv_interface_1>
   printf("Output for first CONV: ");
 800220c:	01020074 	movhi	r4,2049
 8002210:	2108b704 	addi	r4,r4,8924
 8002214:	8003fd80 	call	8003fd8 <printf>
   int i = 0, j = 0, k = 0;
 8002218:	e02c9915 	stw	zero,-19868(fp)
 800221c:	e02c9a15 	stw	zero,-19864(fp)
 8002220:	e02c9b15 	stw	zero,-19860(fp)
//			   printSignBinary(con2_fmap[i][j][k], 16);
//			   printf("\n");
//		   }
//	   }
//   }
   conv_interface_2(second_conv, con2_fmap, conv_finish_fmap);
 8002224:	e0ac9c04 	addi	r2,fp,-19856
 8002228:	e13ffd17 	ldw	r4,-12(fp)
 800222c:	100b883a 	mov	r5,r2
 8002230:	e1bfff17 	ldw	r6,-4(fp)
 8002234:	8001eb40 	call	8001eb4 <conv_interface_2>
   printf("Output for mean pool: ");
 8002238:	01020074 	movhi	r4,2049
 800223c:	2108bd04 	addi	r4,r4,8948
 8002240:	8003fd80 	call	8003fd8 <printf>
   printf("%f\n", (double)(*(conv_finish_fmap)) / 16.0);
 8002244:	e0bfff17 	ldw	r2,-4(fp)
 8002248:	10800003 	ldbu	r2,0(r2)
 800224c:	10803fcc 	andi	r2,r2,255
 8002250:	1009883a 	mov	r4,r2
 8002254:	8003c540 	call	8003c54 <__floatunsidf>
 8002258:	100b883a 	mov	r5,r2
 800225c:	180d883a 	mov	r6,r3
 8002260:	2809883a 	mov	r4,r5
 8002264:	300b883a 	mov	r5,r6
 8002268:	000d883a 	mov	r6,zero
 800226c:	01d00c34 	movhi	r7,16432
 8002270:	80032b80 	call	80032b8 <__divdf3>
 8002274:	1009883a 	mov	r4,r2
 8002278:	180b883a 	mov	r5,r3
 800227c:	2005883a 	mov	r2,r4
 8002280:	2807883a 	mov	r3,r5
 8002284:	01020074 	movhi	r4,2049
 8002288:	2108b604 	addi	r4,r4,8920
 800228c:	100b883a 	mov	r5,r2
 8002290:	180d883a 	mov	r6,r3
 8002294:	8003fd80 	call	8003fd8 <printf>
   //printMatrix(conv_finish_fmap, 9, 6, 16, 16);
};
 8002298:	e037883a 	mov	sp,fp
 800229c:	dfc00117 	ldw	ra,4(sp)
 80022a0:	df000017 	ldw	fp,0(sp)
 80022a4:	dec00204 	addi	sp,sp,8
 80022a8:	f800283a 	ret

080022ac <fully_connencted>:

void fully_connencted( alt_u8 * data_mat, int image_h, int image_w,
   alt_u8 * weight_mat, int filter_height, int filter_weight, int filter_num, alt_16* fc_finish){
 80022ac:	defffe04 	addi	sp,sp,-8
 80022b0:	dfc00115 	stw	ra,4(sp)
 80022b4:	df000015 	stw	fp,0(sp)
 80022b8:	d839883a 	mov	fp,sp
 80022bc:	023ffff4 	movhi	r8,65535
 80022c0:	421f5204 	addi	r8,r8,32072
 80022c4:	da37883a 	add	sp,sp,r8
 80022c8:	00a0aa14 	movui	r2,33448
 80022cc:	00fffff4 	movhi	r3,65535
 80022d0:	18df5204 	addi	r3,r3,32072
 80022d4:	1f07883a 	add	r3,r3,fp
 80022d8:	1885883a 	add	r2,r3,r2
 80022dc:	11000015 	stw	r4,0(r2)
 80022e0:	00a0ab14 	movui	r2,33452
 80022e4:	013ffff4 	movhi	r4,65535
 80022e8:	211f5204 	addi	r4,r4,32072
 80022ec:	2709883a 	add	r4,r4,fp
 80022f0:	2085883a 	add	r2,r4,r2
 80022f4:	11400015 	stw	r5,0(r2)
 80022f8:	00a0ac14 	movui	r2,33456
 80022fc:	017ffff4 	movhi	r5,65535
 8002300:	295f5204 	addi	r5,r5,32072
 8002304:	2f0b883a 	add	r5,r5,fp
 8002308:	2885883a 	add	r2,r5,r2
 800230c:	11800015 	stw	r6,0(r2)
 8002310:	00a0ad14 	movui	r2,33460
 8002314:	01bffff4 	movhi	r6,65535
 8002318:	319f5204 	addi	r6,r6,32072
 800231c:	370d883a 	add	r6,r6,fp
 8002320:	3085883a 	add	r2,r6,r2
 8002324:	11c00015 	stw	r7,0(r2)
   int flatten_num = image_h*image_w;
 8002328:	00a0ab14 	movui	r2,33452
 800232c:	013ffff4 	movhi	r4,65535
 8002330:	211f5204 	addi	r4,r4,32072
 8002334:	2709883a 	add	r4,r4,fp
 8002338:	2087883a 	add	r3,r4,r2
 800233c:	00a0ac14 	movui	r2,33456
 8002340:	017ffff4 	movhi	r5,65535
 8002344:	295f5204 	addi	r5,r5,32072
 8002348:	2f0b883a 	add	r5,r5,fp
 800234c:	2885883a 	add	r2,r5,r2
 8002350:	18c00017 	ldw	r3,0(r3)
 8002354:	10800017 	ldw	r2,0(r2)
 8002358:	1885383a 	mul	r2,r3,r2
 800235c:	01bffff4 	movhi	r6,65535
 8002360:	319f5b04 	addi	r6,r6,32108
 8002364:	370d883a 	add	r6,r6,fp
 8002368:	30800015 	stw	r2,0(r6)
   alt_u8 mat_block[257][128] = {0};
 800236c:	00bffff4 	movhi	r2,65535
 8002370:	109f5c04 	addi	r2,r2,32112
 8002374:	e087883a 	add	r3,fp,r2
 8002378:	00a02014 	movui	r2,32896
 800237c:	1809883a 	mov	r4,r3
 8002380:	000b883a 	mov	r5,zero
 8002384:	100d883a 	mov	r6,r2
 8002388:	8003e880 	call	8003e88 <memset>
   alt_16 result[256] = {0};
 800238c:	00a02a14 	movui	r2,32936
 8002390:	00fffff4 	movhi	r3,65535
 8002394:	18df5204 	addi	r3,r3,32072
 8002398:	1f07883a 	add	r3,r3,fp
 800239c:	1885883a 	add	r2,r3,r2
 80023a0:	1007883a 	mov	r3,r2
 80023a4:	00808004 	movi	r2,512
 80023a8:	1809883a 	mov	r4,r3
 80023ac:	000b883a 	mov	r5,zero
 80023b0:	100d883a 	mov	r6,r2
 80023b4:	8003e880 	call	8003e88 <memset>
   alt_u8 * d_ptr; d_ptr = data_mat;
 80023b8:	00a0aa14 	movui	r2,33448
 80023bc:	013ffff4 	movhi	r4,65535
 80023c0:	211f5204 	addi	r4,r4,32072
 80023c4:	2709883a 	add	r4,r4,fp
 80023c8:	2085883a 	add	r2,r4,r2
 80023cc:	10800017 	ldw	r2,0(r2)
 80023d0:	017ffff4 	movhi	r5,65535
 80023d4:	295f5204 	addi	r5,r5,32072
 80023d8:	2f0b883a 	add	r5,r5,fp
 80023dc:	28800015 	stw	r2,0(r5)
   alt_u8 * f_ptr; f_ptr = weight_mat;
 80023e0:	00a0ad14 	movui	r2,33460
 80023e4:	01bffff4 	movhi	r6,65535
 80023e8:	319f5204 	addi	r6,r6,32072
 80023ec:	370d883a 	add	r6,r6,fp
 80023f0:	3085883a 	add	r2,r6,r2
 80023f4:	10800017 	ldw	r2,0(r2)
 80023f8:	00fffff4 	movhi	r3,65535
 80023fc:	18df5304 	addi	r3,r3,32076
 8002400:	1f07883a 	add	r3,r3,fp
 8002404:	18800015 	stw	r2,0(r3)
   int i=0, db=0, fb=0, r=0, c=0, result_c=0, counter = 0;
 8002408:	013ffff4 	movhi	r4,65535
 800240c:	211f5404 	addi	r4,r4,32080
 8002410:	2709883a 	add	r4,r4,fp
 8002414:	20000015 	stw	zero,0(r4)
 8002418:	017ffff4 	movhi	r5,65535
 800241c:	295f5504 	addi	r5,r5,32084
 8002420:	2f0b883a 	add	r5,r5,fp
 8002424:	28000015 	stw	zero,0(r5)
 8002428:	01bffff4 	movhi	r6,65535
 800242c:	319f5604 	addi	r6,r6,32088
 8002430:	370d883a 	add	r6,r6,fp
 8002434:	30000015 	stw	zero,0(r6)
 8002438:	00bffff4 	movhi	r2,65535
 800243c:	109f5704 	addi	r2,r2,32092
 8002440:	1705883a 	add	r2,r2,fp
 8002444:	10000015 	stw	zero,0(r2)
 8002448:	00fffff4 	movhi	r3,65535
 800244c:	18df5804 	addi	r3,r3,32096
 8002450:	1f07883a 	add	r3,r3,fp
 8002454:	18000015 	stw	zero,0(r3)
 8002458:	013ffff4 	movhi	r4,65535
 800245c:	211f5904 	addi	r4,r4,32100
 8002460:	2709883a 	add	r4,r4,fp
 8002464:	20000015 	stw	zero,0(r4)
 8002468:	017ffff4 	movhi	r5,65535
 800246c:	295f5a04 	addi	r5,r5,32104
 8002470:	2f0b883a 	add	r5,r5,fp
 8002474:	28000015 	stw	zero,0(r5)

   // for every colume in filter
   for(i=0 ; i < filter_num ; ++i){
 8002478:	01bffff4 	movhi	r6,65535
 800247c:	319f5404 	addi	r6,r6,32080
 8002480:	370d883a 	add	r6,r6,fp
 8002484:	30000015 	stw	zero,0(r6)
 8002488:	0001e606 	br	8002c24 <fully_connencted+0x978>
      // for every block in filter(filter block)
      for(fb=0; fb < (filter_height * filter_weight - 1)/128 + 1; ++fb){
 800248c:	00bffff4 	movhi	r2,65535
 8002490:	109f5604 	addi	r2,r2,32088
 8002494:	1705883a 	add	r2,r2,fp
 8002498:	10000015 	stw	zero,0(r2)
 800249c:	0001cb06 	br	8002bcc <fully_connencted+0x920>
         //set the initial ptr
         d_ptr = data_mat + fb*128;
 80024a0:	00fffff4 	movhi	r3,65535
 80024a4:	18df5604 	addi	r3,r3,32088
 80024a8:	1f07883a 	add	r3,r3,fp
 80024ac:	18800017 	ldw	r2,0(r3)
 80024b0:	100491fa 	slli	r2,r2,7
 80024b4:	1007883a 	mov	r3,r2
 80024b8:	00a0aa14 	movui	r2,33448
 80024bc:	013ffff4 	movhi	r4,65535
 80024c0:	211f5204 	addi	r4,r4,32072
 80024c4:	2709883a 	add	r4,r4,fp
 80024c8:	2085883a 	add	r2,r4,r2
 80024cc:	10800017 	ldw	r2,0(r2)
 80024d0:	10c5883a 	add	r2,r2,r3
 80024d4:	017ffff4 	movhi	r5,65535
 80024d8:	295f5204 	addi	r5,r5,32072
 80024dc:	2f0b883a 	add	r5,r5,fp
 80024e0:	28800015 	stw	r2,0(r5)
         f_ptr = weight_mat + fb*filter_num*128 +i;
 80024e4:	01bffff4 	movhi	r6,65535
 80024e8:	319f5604 	addi	r6,r6,32088
 80024ec:	370d883a 	add	r6,r6,fp
 80024f0:	30c00017 	ldw	r3,0(r6)
 80024f4:	e0800417 	ldw	r2,16(fp)
 80024f8:	1885383a 	mul	r2,r3,r2
 80024fc:	100491fa 	slli	r2,r2,7
 8002500:	1007883a 	mov	r3,r2
 8002504:	013ffff4 	movhi	r4,65535
 8002508:	211f5404 	addi	r4,r4,32080
 800250c:	2709883a 	add	r4,r4,fp
 8002510:	20800017 	ldw	r2,0(r4)
 8002514:	1885883a 	add	r2,r3,r2
 8002518:	00e0ad14 	movui	r3,33460
 800251c:	017ffff4 	movhi	r5,65535
 8002520:	295f5204 	addi	r5,r5,32072
 8002524:	2f0b883a 	add	r5,r5,fp
 8002528:	28c7883a 	add	r3,r5,r3
 800252c:	18c00017 	ldw	r3,0(r3)
 8002530:	1885883a 	add	r2,r3,r2
 8002534:	01bffff4 	movhi	r6,65535
 8002538:	319f5304 	addi	r6,r6,32076
 800253c:	370d883a 	add	r6,r6,fp
 8002540:	30800015 	stw	r2,0(r6)

         // for every block per colume in data(data block)
         for(db=0; db < (flatten_num - 1)/256 + 1; ++db){
 8002544:	00bffff4 	movhi	r2,65535
 8002548:	109f5504 	addi	r2,r2,32084
 800254c:	1705883a 	add	r2,r2,fp
 8002550:	10000015 	stw	zero,0(r2)
 8002554:	00018606 	br	8002b70 <fully_connencted+0x8c4>
            // one block
            // put every row in data into mat_block
            for( r=0; r<256; ++r ){
 8002558:	00fffff4 	movhi	r3,65535
 800255c:	18df5704 	addi	r3,r3,32092
 8002560:	1f07883a 	add	r3,r3,fp
 8002564:	18000015 	stw	zero,0(r3)
 8002568:	0000b306 	br	8002838 <fully_connencted+0x58c>
               // when data row is smaller then flatten_num
               if( db*256+r < flatten_num ){
 800256c:	013ffff4 	movhi	r4,65535
 8002570:	211f5504 	addi	r4,r4,32084
 8002574:	2709883a 	add	r4,r4,fp
 8002578:	20800017 	ldw	r2,0(r4)
 800257c:	1006923a 	slli	r3,r2,8
 8002580:	017ffff4 	movhi	r5,65535
 8002584:	295f5704 	addi	r5,r5,32092
 8002588:	2f0b883a 	add	r5,r5,fp
 800258c:	28800017 	ldw	r2,0(r5)
 8002590:	1887883a 	add	r3,r3,r2
 8002594:	01bffff4 	movhi	r6,65535
 8002598:	319f5b04 	addi	r6,r6,32108
 800259c:	370d883a 	add	r6,r6,fp
 80025a0:	30800017 	ldw	r2,0(r6)
 80025a4:	1880770e 	bge	r3,r2,8002784 <fully_connencted+0x4d8>
                  // put every element in data into mat_block
                  for(c=0 ; c<128 ; ++c){
 80025a8:	00bffff4 	movhi	r2,65535
 80025ac:	109f5804 	addi	r2,r2,32096
 80025b0:	1705883a 	add	r2,r2,fp
 80025b4:	10000015 	stw	zero,0(r2)
 80025b8:	00004606 	br	80026d4 <fully_connencted+0x428>
                     // when data colume is smaller then filter_height*filter_weight
                     if( fb*128+c < filter_height*filter_weight ){
 80025bc:	00fffff4 	movhi	r3,65535
 80025c0:	18df5604 	addi	r3,r3,32088
 80025c4:	1f07883a 	add	r3,r3,fp
 80025c8:	18800017 	ldw	r2,0(r3)
 80025cc:	100691fa 	slli	r3,r2,7
 80025d0:	013ffff4 	movhi	r4,65535
 80025d4:	211f5804 	addi	r4,r4,32096
 80025d8:	2709883a 	add	r4,r4,fp
 80025dc:	20800017 	ldw	r2,0(r4)
 80025e0:	1887883a 	add	r3,r3,r2
 80025e4:	e1000217 	ldw	r4,8(fp)
 80025e8:	e0800317 	ldw	r2,12(fp)
 80025ec:	2085383a 	mul	r2,r4,r2
 80025f0:	18801f0e 	bge	r3,r2,8002670 <fully_connencted+0x3c4>
                        mat_block[r][c] = *(d_ptr);
 80025f4:	017ffff4 	movhi	r5,65535
 80025f8:	295f5204 	addi	r5,r5,32072
 80025fc:	2f0b883a 	add	r5,r5,fp
 8002600:	28800017 	ldw	r2,0(r5)
 8002604:	10c00003 	ldbu	r3,0(r2)
 8002608:	01bffff4 	movhi	r6,65535
 800260c:	319f5704 	addi	r6,r6,32092
 8002610:	370d883a 	add	r6,r6,fp
 8002614:	30800017 	ldw	r2,0(r6)
 8002618:	100491fa 	slli	r2,r2,7
 800261c:	017ffff4 	movhi	r5,65535
 8002620:	295f5204 	addi	r5,r5,32072
 8002624:	2f0b883a 	add	r5,r5,fp
 8002628:	2889883a 	add	r4,r5,r2
 800262c:	01bffff4 	movhi	r6,65535
 8002630:	319f5804 	addi	r6,r6,32096
 8002634:	370d883a 	add	r6,r6,fp
 8002638:	30800017 	ldw	r2,0(r6)
 800263c:	2085883a 	add	r2,r4,r2
 8002640:	10800a04 	addi	r2,r2,40
 8002644:	10c00005 	stb	r3,0(r2)
                        d_ptr = d_ptr+1;
 8002648:	00fffff4 	movhi	r3,65535
 800264c:	18df5204 	addi	r3,r3,32072
 8002650:	1f07883a 	add	r3,r3,fp
 8002654:	18800017 	ldw	r2,0(r3)
 8002658:	10800044 	addi	r2,r2,1
 800265c:	013ffff4 	movhi	r4,65535
 8002660:	211f5204 	addi	r4,r4,32072
 8002664:	2709883a 	add	r4,r4,fp
 8002668:	20800015 	stw	r2,0(r4)
 800266c:	00001006 	br	80026b0 <fully_connencted+0x404>
                     }
                     // else = 0
                     else{
                        mat_block[r][c] = (alt_u8)0;
 8002670:	017ffff4 	movhi	r5,65535
 8002674:	295f5704 	addi	r5,r5,32092
 8002678:	2f0b883a 	add	r5,r5,fp
 800267c:	28800017 	ldw	r2,0(r5)
 8002680:	100491fa 	slli	r2,r2,7
 8002684:	01bffff4 	movhi	r6,65535
 8002688:	319f5204 	addi	r6,r6,32072
 800268c:	370d883a 	add	r6,r6,fp
 8002690:	3087883a 	add	r3,r6,r2
 8002694:	013ffff4 	movhi	r4,65535
 8002698:	211f5804 	addi	r4,r4,32096
 800269c:	2709883a 	add	r4,r4,fp
 80026a0:	20800017 	ldw	r2,0(r4)
 80026a4:	1885883a 	add	r2,r3,r2
 80026a8:	10800a04 	addi	r2,r2,40
 80026ac:	10000005 	stb	zero,0(r2)
            // put every row in data into mat_block
            for( r=0; r<256; ++r ){
               // when data row is smaller then flatten_num
               if( db*256+r < flatten_num ){
                  // put every element in data into mat_block
                  for(c=0 ; c<128 ; ++c){
 80026b0:	017ffff4 	movhi	r5,65535
 80026b4:	295f5804 	addi	r5,r5,32096
 80026b8:	2f0b883a 	add	r5,r5,fp
 80026bc:	28800017 	ldw	r2,0(r5)
 80026c0:	10800044 	addi	r2,r2,1
 80026c4:	01bffff4 	movhi	r6,65535
 80026c8:	319f5804 	addi	r6,r6,32096
 80026cc:	370d883a 	add	r6,r6,fp
 80026d0:	30800015 	stw	r2,0(r6)
 80026d4:	00fffff4 	movhi	r3,65535
 80026d8:	18df5804 	addi	r3,r3,32096
 80026dc:	1f07883a 	add	r3,r3,fp
 80026e0:	18800017 	ldw	r2,0(r3)
 80026e4:	10802010 	cmplti	r2,r2,128
 80026e8:	103fb41e 	bne	r2,zero,80025bc <__ram_exceptions_end+0xf7f8237c>
                     // else = 0
                     else{
                        mat_block[r][c] = (alt_u8)0;
                     }
                  }
                  d_ptr = data_mat + db*256*filter_height*filter_weight + (r+1)*filter_height*filter_weight + fb*128;
 80026ec:	013ffff4 	movhi	r4,65535
 80026f0:	211f5504 	addi	r4,r4,32084
 80026f4:	2709883a 	add	r4,r4,fp
 80026f8:	20800017 	ldw	r2,0(r4)
 80026fc:	1006923a 	slli	r3,r2,8
 8002700:	e0800217 	ldw	r2,8(fp)
 8002704:	1887383a 	mul	r3,r3,r2
 8002708:	e0800317 	ldw	r2,12(fp)
 800270c:	1885383a 	mul	r2,r3,r2
 8002710:	1009883a 	mov	r4,r2
 8002714:	017ffff4 	movhi	r5,65535
 8002718:	295f5704 	addi	r5,r5,32092
 800271c:	2f0b883a 	add	r5,r5,fp
 8002720:	28800017 	ldw	r2,0(r5)
 8002724:	10c00044 	addi	r3,r2,1
 8002728:	e0800217 	ldw	r2,8(fp)
 800272c:	1887383a 	mul	r3,r3,r2
 8002730:	e0800317 	ldw	r2,12(fp)
 8002734:	1885383a 	mul	r2,r3,r2
 8002738:	2085883a 	add	r2,r4,r2
 800273c:	01bffff4 	movhi	r6,65535
 8002740:	319f5604 	addi	r6,r6,32088
 8002744:	370d883a 	add	r6,r6,fp
 8002748:	30c00017 	ldw	r3,0(r6)
 800274c:	180691fa 	slli	r3,r3,7
 8002750:	10c5883a 	add	r2,r2,r3
 8002754:	00e0aa14 	movui	r3,33448
 8002758:	013ffff4 	movhi	r4,65535
 800275c:	211f5204 	addi	r4,r4,32072
 8002760:	2709883a 	add	r4,r4,fp
 8002764:	20c7883a 	add	r3,r4,r3
 8002768:	18c00017 	ldw	r3,0(r3)
 800276c:	1885883a 	add	r2,r3,r2
 8002770:	017ffff4 	movhi	r5,65535
 8002774:	295f5204 	addi	r5,r5,32072
 8002778:	2f0b883a 	add	r5,r5,fp
 800277c:	28800015 	stw	r2,0(r5)
 8002780:	00002406 	br	8002814 <fully_connencted+0x568>
               }
               // else = 0
               else{
                  for(c=0 ; c<128 ; ++c){ mat_block[r][c] = (alt_u8)0; }
 8002784:	01bffff4 	movhi	r6,65535
 8002788:	319f5804 	addi	r6,r6,32096
 800278c:	370d883a 	add	r6,r6,fp
 8002790:	30000015 	stw	zero,0(r6)
 8002794:	00001906 	br	80027fc <fully_connencted+0x550>
 8002798:	00fffff4 	movhi	r3,65535
 800279c:	18df5704 	addi	r3,r3,32092
 80027a0:	1f07883a 	add	r3,r3,fp
 80027a4:	18800017 	ldw	r2,0(r3)
 80027a8:	100491fa 	slli	r2,r2,7
 80027ac:	013ffff4 	movhi	r4,65535
 80027b0:	211f5204 	addi	r4,r4,32072
 80027b4:	2709883a 	add	r4,r4,fp
 80027b8:	2087883a 	add	r3,r4,r2
 80027bc:	017ffff4 	movhi	r5,65535
 80027c0:	295f5804 	addi	r5,r5,32096
 80027c4:	2f0b883a 	add	r5,r5,fp
 80027c8:	28800017 	ldw	r2,0(r5)
 80027cc:	1885883a 	add	r2,r3,r2
 80027d0:	10800a04 	addi	r2,r2,40
 80027d4:	10000005 	stb	zero,0(r2)
 80027d8:	01bffff4 	movhi	r6,65535
 80027dc:	319f5804 	addi	r6,r6,32096
 80027e0:	370d883a 	add	r6,r6,fp
 80027e4:	30800017 	ldw	r2,0(r6)
 80027e8:	10800044 	addi	r2,r2,1
 80027ec:	00fffff4 	movhi	r3,65535
 80027f0:	18df5804 	addi	r3,r3,32096
 80027f4:	1f07883a 	add	r3,r3,fp
 80027f8:	18800015 	stw	r2,0(r3)
 80027fc:	013ffff4 	movhi	r4,65535
 8002800:	211f5804 	addi	r4,r4,32096
 8002804:	2709883a 	add	r4,r4,fp
 8002808:	20800017 	ldw	r2,0(r4)
 800280c:	10802010 	cmplti	r2,r2,128
 8002810:	103fe11e 	bne	r2,zero,8002798 <__ram_exceptions_end+0xf7f82558>

         // for every block per colume in data(data block)
         for(db=0; db < (flatten_num - 1)/256 + 1; ++db){
            // one block
            // put every row in data into mat_block
            for( r=0; r<256; ++r ){
 8002814:	017ffff4 	movhi	r5,65535
 8002818:	295f5704 	addi	r5,r5,32092
 800281c:	2f0b883a 	add	r5,r5,fp
 8002820:	28800017 	ldw	r2,0(r5)
 8002824:	10800044 	addi	r2,r2,1
 8002828:	01bffff4 	movhi	r6,65535
 800282c:	319f5704 	addi	r6,r6,32092
 8002830:	370d883a 	add	r6,r6,fp
 8002834:	30800015 	stw	r2,0(r6)
 8002838:	00fffff4 	movhi	r3,65535
 800283c:	18df5704 	addi	r3,r3,32092
 8002840:	1f07883a 	add	r3,r3,fp
 8002844:	18800017 	ldw	r2,0(r3)
 8002848:	10804010 	cmplti	r2,r2,256
 800284c:	103f471e 	bne	r2,zero,800256c <__ram_exceptions_end+0xf7f8232c>
                  for(c=0 ; c<128 ; ++c){ mat_block[r][c] = (alt_u8)0; }
               }
            }

            // put one colume in filter into mat_block
            counter = 0;
 8002850:	013ffff4 	movhi	r4,65535
 8002854:	211f5a04 	addi	r4,r4,32104
 8002858:	2709883a 	add	r4,r4,fp
 800285c:	20000015 	stw	zero,0(r4)
            for(c=0 ; c<128 ; ++c){
 8002860:	017ffff4 	movhi	r5,65535
 8002864:	295f5804 	addi	r5,r5,32096
 8002868:	2f0b883a 	add	r5,r5,fp
 800286c:	28000015 	stw	zero,0(r5)
 8002870:	00004606 	br	800298c <fully_connencted+0x6e0>
               if(fb*128+c<(filter_height*filter_weight)){
 8002874:	01bffff4 	movhi	r6,65535
 8002878:	319f5604 	addi	r6,r6,32088
 800287c:	370d883a 	add	r6,r6,fp
 8002880:	30800017 	ldw	r2,0(r6)
 8002884:	100691fa 	slli	r3,r2,7
 8002888:	013ffff4 	movhi	r4,65535
 800288c:	211f5804 	addi	r4,r4,32096
 8002890:	2709883a 	add	r4,r4,fp
 8002894:	20800017 	ldw	r2,0(r4)
 8002898:	1887883a 	add	r3,r3,r2
 800289c:	e1000217 	ldw	r4,8(fp)
 80028a0:	e0800317 	ldw	r2,12(fp)
 80028a4:	2085383a 	mul	r2,r4,r2
 80028a8:	1880240e 	bge	r3,r2,800293c <fully_connencted+0x690>
                  mat_block[256][c] = *(f_ptr);
 80028ac:	017ffff4 	movhi	r5,65535
 80028b0:	295f5304 	addi	r5,r5,32076
 80028b4:	2f0b883a 	add	r5,r5,fp
 80028b8:	28800017 	ldw	r2,0(r5)
 80028bc:	10c00003 	ldbu	r3,0(r2)
 80028c0:	00a00a14 	movui	r2,32808
 80028c4:	01bffff4 	movhi	r6,65535
 80028c8:	319f5204 	addi	r6,r6,32072
 80028cc:	370d883a 	add	r6,r6,fp
 80028d0:	3089883a 	add	r4,r6,r2
 80028d4:	017ffff4 	movhi	r5,65535
 80028d8:	295f5804 	addi	r5,r5,32096
 80028dc:	2f0b883a 	add	r5,r5,fp
 80028e0:	28800017 	ldw	r2,0(r5)
 80028e4:	2085883a 	add	r2,r4,r2
 80028e8:	10c00005 	stb	r3,0(r2)
                  f_ptr = f_ptr + filter_num;
 80028ec:	e0800417 	ldw	r2,16(fp)
 80028f0:	01bffff4 	movhi	r6,65535
 80028f4:	319f5304 	addi	r6,r6,32076
 80028f8:	370d883a 	add	r6,r6,fp
 80028fc:	30c00017 	ldw	r3,0(r6)
 8002900:	1885883a 	add	r2,r3,r2
 8002904:	00fffff4 	movhi	r3,65535
 8002908:	18df5304 	addi	r3,r3,32076
 800290c:	1f07883a 	add	r3,r3,fp
 8002910:	18800015 	stw	r2,0(r3)
                  counter ++;
 8002914:	013ffff4 	movhi	r4,65535
 8002918:	211f5a04 	addi	r4,r4,32104
 800291c:	2709883a 	add	r4,r4,fp
 8002920:	20800017 	ldw	r2,0(r4)
 8002924:	10800044 	addi	r2,r2,1
 8002928:	017ffff4 	movhi	r5,65535
 800292c:	295f5a04 	addi	r5,r5,32104
 8002930:	2f0b883a 	add	r5,r5,fp
 8002934:	28800015 	stw	r2,0(r5)
 8002938:	00000b06 	br	8002968 <fully_connencted+0x6bc>
               }
               else
                  mat_block[256][c] = (alt_u8)0;
 800293c:	00a00a14 	movui	r2,32808
 8002940:	01bffff4 	movhi	r6,65535
 8002944:	319f5204 	addi	r6,r6,32072
 8002948:	370d883a 	add	r6,r6,fp
 800294c:	3087883a 	add	r3,r6,r2
 8002950:	013ffff4 	movhi	r4,65535
 8002954:	211f5804 	addi	r4,r4,32096
 8002958:	2709883a 	add	r4,r4,fp
 800295c:	20800017 	ldw	r2,0(r4)
 8002960:	1885883a 	add	r2,r3,r2
 8002964:	10000005 	stb	zero,0(r2)
               }
            }

            // put one colume in filter into mat_block
            counter = 0;
            for(c=0 ; c<128 ; ++c){
 8002968:	017ffff4 	movhi	r5,65535
 800296c:	295f5804 	addi	r5,r5,32096
 8002970:	2f0b883a 	add	r5,r5,fp
 8002974:	28800017 	ldw	r2,0(r5)
 8002978:	10800044 	addi	r2,r2,1
 800297c:	01bffff4 	movhi	r6,65535
 8002980:	319f5804 	addi	r6,r6,32096
 8002984:	370d883a 	add	r6,r6,fp
 8002988:	30800015 	stw	r2,0(r6)
 800298c:	00fffff4 	movhi	r3,65535
 8002990:	18df5804 	addi	r3,r3,32096
 8002994:	1f07883a 	add	r3,r3,fp
 8002998:	18800017 	ldw	r2,0(r3)
 800299c:	10802010 	cmplti	r2,r2,128
 80029a0:	103fb41e 	bne	r2,zero,8002874 <__ram_exceptions_end+0xf7f82634>
               else
                  mat_block[256][c] = (alt_u8)0;
            }

            //calculate by mat_mul
            mat_mul(mat_block, result);
 80029a4:	013ffff4 	movhi	r4,65535
 80029a8:	211f5c04 	addi	r4,r4,32112
 80029ac:	e107883a 	add	r3,fp,r4
 80029b0:	00a02a14 	movui	r2,32936
 80029b4:	017ffff4 	movhi	r5,65535
 80029b8:	295f5204 	addi	r5,r5,32072
 80029bc:	2f0b883a 	add	r5,r5,fp
 80029c0:	2885883a 	add	r2,r5,r2
 80029c4:	1809883a 	mov	r4,r3
 80029c8:	100b883a 	mov	r5,r2
 80029cc:	8000af00 	call	8000af0 <mat_mul>
//               for(fuck=0 ; fuck<256 ; ++fuck){
//            	   printf("num = %d, ans = %f ", fuck, (double)(*(result+fuck-counter)));
//            	   printf("\n");
//               }
//            }
            for(result_c=0 ; result_c<256 ; ++result_c){
 80029d0:	01bffff4 	movhi	r6,65535
 80029d4:	319f5904 	addi	r6,r6,32100
 80029d8:	370d883a 	add	r6,r6,fp
 80029dc:	30000015 	stw	zero,0(r6)
 80029e0:	00005406 	br	8002b34 <fully_connencted+0x888>
               if(db*256+result_c<flatten_num)
 80029e4:	00fffff4 	movhi	r3,65535
 80029e8:	18df5504 	addi	r3,r3,32084
 80029ec:	1f07883a 	add	r3,r3,fp
 80029f0:	18800017 	ldw	r2,0(r3)
 80029f4:	1006923a 	slli	r3,r2,8
 80029f8:	013ffff4 	movhi	r4,65535
 80029fc:	211f5904 	addi	r4,r4,32100
 8002a00:	2709883a 	add	r4,r4,fp
 8002a04:	20800017 	ldw	r2,0(r4)
 8002a08:	1887883a 	add	r3,r3,r2
 8002a0c:	017ffff4 	movhi	r5,65535
 8002a10:	295f5b04 	addi	r5,r5,32108
 8002a14:	2f0b883a 	add	r5,r5,fp
 8002a18:	28800017 	ldw	r2,0(r5)
 8002a1c:	18803c0e 	bge	r3,r2,8002b10 <fully_connencted+0x864>
                  *(fc_finish+(db*256+result_c)*filter_num + i) += (result[result_c]);
 8002a20:	01bffff4 	movhi	r6,65535
 8002a24:	319f5504 	addi	r6,r6,32084
 8002a28:	370d883a 	add	r6,r6,fp
 8002a2c:	30800017 	ldw	r2,0(r6)
 8002a30:	1006923a 	slli	r3,r2,8
 8002a34:	013ffff4 	movhi	r4,65535
 8002a38:	211f5904 	addi	r4,r4,32100
 8002a3c:	2709883a 	add	r4,r4,fp
 8002a40:	20800017 	ldw	r2,0(r4)
 8002a44:	1887883a 	add	r3,r3,r2
 8002a48:	e0800417 	ldw	r2,16(fp)
 8002a4c:	1885383a 	mul	r2,r3,r2
 8002a50:	1007883a 	mov	r3,r2
 8002a54:	017ffff4 	movhi	r5,65535
 8002a58:	295f5404 	addi	r5,r5,32080
 8002a5c:	2f0b883a 	add	r5,r5,fp
 8002a60:	28800017 	ldw	r2,0(r5)
 8002a64:	1885883a 	add	r2,r3,r2
 8002a68:	1085883a 	add	r2,r2,r2
 8002a6c:	1007883a 	mov	r3,r2
 8002a70:	e0800517 	ldw	r2,20(fp)
 8002a74:	10c7883a 	add	r3,r2,r3
 8002a78:	01bffff4 	movhi	r6,65535
 8002a7c:	319f5504 	addi	r6,r6,32084
 8002a80:	370d883a 	add	r6,r6,fp
 8002a84:	30800017 	ldw	r2,0(r6)
 8002a88:	1008923a 	slli	r4,r2,8
 8002a8c:	017ffff4 	movhi	r5,65535
 8002a90:	295f5904 	addi	r5,r5,32100
 8002a94:	2f0b883a 	add	r5,r5,fp
 8002a98:	28800017 	ldw	r2,0(r5)
 8002a9c:	2089883a 	add	r4,r4,r2
 8002aa0:	e0800417 	ldw	r2,16(fp)
 8002aa4:	2085383a 	mul	r2,r4,r2
 8002aa8:	1009883a 	mov	r4,r2
 8002aac:	01bffff4 	movhi	r6,65535
 8002ab0:	319f5404 	addi	r6,r6,32080
 8002ab4:	370d883a 	add	r6,r6,fp
 8002ab8:	30800017 	ldw	r2,0(r6)
 8002abc:	2085883a 	add	r2,r4,r2
 8002ac0:	1085883a 	add	r2,r2,r2
 8002ac4:	1009883a 	mov	r4,r2
 8002ac8:	e0800517 	ldw	r2,20(fp)
 8002acc:	1105883a 	add	r2,r2,r4
 8002ad0:	1080000b 	ldhu	r2,0(r2)
 8002ad4:	100b883a 	mov	r5,r2
 8002ad8:	00a02a14 	movui	r2,32936
 8002adc:	01bffff4 	movhi	r6,65535
 8002ae0:	319f5204 	addi	r6,r6,32072
 8002ae4:	370d883a 	add	r6,r6,fp
 8002ae8:	3089883a 	add	r4,r6,r2
 8002aec:	01bffff4 	movhi	r6,65535
 8002af0:	319f5904 	addi	r6,r6,32100
 8002af4:	370d883a 	add	r6,r6,fp
 8002af8:	30800017 	ldw	r2,0(r6)
 8002afc:	1085883a 	add	r2,r2,r2
 8002b00:	2085883a 	add	r2,r4,r2
 8002b04:	1080000b 	ldhu	r2,0(r2)
 8002b08:	2885883a 	add	r2,r5,r2
 8002b0c:	1880000d 	sth	r2,0(r3)
//               for(fuck=0 ; fuck<256 ; ++fuck){
//            	   printf("num = %d, ans = %f ", fuck, (double)(*(result+fuck-counter)));
//            	   printf("\n");
//               }
//            }
            for(result_c=0 ; result_c<256 ; ++result_c){
 8002b10:	00fffff4 	movhi	r3,65535
 8002b14:	18df5904 	addi	r3,r3,32100
 8002b18:	1f07883a 	add	r3,r3,fp
 8002b1c:	18800017 	ldw	r2,0(r3)
 8002b20:	10800044 	addi	r2,r2,1
 8002b24:	013ffff4 	movhi	r4,65535
 8002b28:	211f5904 	addi	r4,r4,32100
 8002b2c:	2709883a 	add	r4,r4,fp
 8002b30:	20800015 	stw	r2,0(r4)
 8002b34:	017ffff4 	movhi	r5,65535
 8002b38:	295f5904 	addi	r5,r5,32100
 8002b3c:	2f0b883a 	add	r5,r5,fp
 8002b40:	28800017 	ldw	r2,0(r5)
 8002b44:	10804010 	cmplti	r2,r2,256
 8002b48:	103fa61e 	bne	r2,zero,80029e4 <__ram_exceptions_end+0xf7f827a4>
         //set the initial ptr
         d_ptr = data_mat + fb*128;
         f_ptr = weight_mat + fb*filter_num*128 +i;

         // for every block per colume in data(data block)
         for(db=0; db < (flatten_num - 1)/256 + 1; ++db){
 8002b4c:	01bffff4 	movhi	r6,65535
 8002b50:	319f5504 	addi	r6,r6,32084
 8002b54:	370d883a 	add	r6,r6,fp
 8002b58:	30800017 	ldw	r2,0(r6)
 8002b5c:	10800044 	addi	r2,r2,1
 8002b60:	00fffff4 	movhi	r3,65535
 8002b64:	18df5504 	addi	r3,r3,32084
 8002b68:	1f07883a 	add	r3,r3,fp
 8002b6c:	18800015 	stw	r2,0(r3)
 8002b70:	013ffff4 	movhi	r4,65535
 8002b74:	211f5b04 	addi	r4,r4,32108
 8002b78:	2709883a 	add	r4,r4,fp
 8002b7c:	20800017 	ldw	r2,0(r4)
 8002b80:	10bfffc4 	addi	r2,r2,-1
 8002b84:	1000010e 	bge	r2,zero,8002b8c <fully_connencted+0x8e0>
 8002b88:	10803fc4 	addi	r2,r2,255
 8002b8c:	1005d23a 	srai	r2,r2,8
 8002b90:	10800044 	addi	r2,r2,1
 8002b94:	017ffff4 	movhi	r5,65535
 8002b98:	295f5504 	addi	r5,r5,32084
 8002b9c:	2f0b883a 	add	r5,r5,fp
 8002ba0:	28c00017 	ldw	r3,0(r5)
 8002ba4:	18be6c16 	blt	r3,r2,8002558 <__ram_exceptions_end+0xf7f82318>
   int i=0, db=0, fb=0, r=0, c=0, result_c=0, counter = 0;

   // for every colume in filter
   for(i=0 ; i < filter_num ; ++i){
      // for every block in filter(filter block)
      for(fb=0; fb < (filter_height * filter_weight - 1)/128 + 1; ++fb){
 8002ba8:	01bffff4 	movhi	r6,65535
 8002bac:	319f5604 	addi	r6,r6,32088
 8002bb0:	370d883a 	add	r6,r6,fp
 8002bb4:	30800017 	ldw	r2,0(r6)
 8002bb8:	10800044 	addi	r2,r2,1
 8002bbc:	00fffff4 	movhi	r3,65535
 8002bc0:	18df5604 	addi	r3,r3,32088
 8002bc4:	1f07883a 	add	r3,r3,fp
 8002bc8:	18800015 	stw	r2,0(r3)
 8002bcc:	e0c00217 	ldw	r3,8(fp)
 8002bd0:	e0800317 	ldw	r2,12(fp)
 8002bd4:	1885383a 	mul	r2,r3,r2
 8002bd8:	10bfffc4 	addi	r2,r2,-1
 8002bdc:	1000010e 	bge	r2,zero,8002be4 <fully_connencted+0x938>
 8002be0:	10801fc4 	addi	r2,r2,127
 8002be4:	1005d1fa 	srai	r2,r2,7
 8002be8:	10800044 	addi	r2,r2,1
 8002bec:	013ffff4 	movhi	r4,65535
 8002bf0:	211f5604 	addi	r4,r4,32088
 8002bf4:	2709883a 	add	r4,r4,fp
 8002bf8:	20c00017 	ldw	r3,0(r4)
 8002bfc:	18be2816 	blt	r3,r2,80024a0 <__ram_exceptions_end+0xf7f82260>
   alt_u8 * d_ptr; d_ptr = data_mat;
   alt_u8 * f_ptr; f_ptr = weight_mat;
   int i=0, db=0, fb=0, r=0, c=0, result_c=0, counter = 0;

   // for every colume in filter
   for(i=0 ; i < filter_num ; ++i){
 8002c00:	017ffff4 	movhi	r5,65535
 8002c04:	295f5404 	addi	r5,r5,32080
 8002c08:	2f0b883a 	add	r5,r5,fp
 8002c0c:	28800017 	ldw	r2,0(r5)
 8002c10:	10800044 	addi	r2,r2,1
 8002c14:	01bffff4 	movhi	r6,65535
 8002c18:	319f5404 	addi	r6,r6,32080
 8002c1c:	370d883a 	add	r6,r6,fp
 8002c20:	30800015 	stw	r2,0(r6)
 8002c24:	00bffff4 	movhi	r2,65535
 8002c28:	109f5404 	addi	r2,r2,32080
 8002c2c:	1705883a 	add	r2,r2,fp
 8002c30:	10c00017 	ldw	r3,0(r2)
 8002c34:	e0800417 	ldw	r2,16(fp)
 8002c38:	18be1416 	blt	r3,r2,800248c <__ram_exceptions_end+0xf7f8224c>
                  *(fc_finish+(db*256+result_c)*filter_num + i) += (result[result_c]);
            }
         }
      }
   }
};
 8002c3c:	e037883a 	mov	sp,fp
 8002c40:	dfc00117 	ldw	ra,4(sp)
 8002c44:	df000017 	ldw	fp,0(sp)
 8002c48:	dec00204 	addi	sp,sp,8
 8002c4c:	f800283a 	ret

08002c50 <printResult>:

void printResult(alt_u8* matrix, alt_16* result) {
 8002c50:	defff904 	addi	sp,sp,-28
 8002c54:	dfc00615 	stw	ra,24(sp)
 8002c58:	df000515 	stw	fp,20(sp)
 8002c5c:	df000504 	addi	fp,sp,20
 8002c60:	e13ffe15 	stw	r4,-8(fp)
 8002c64:	e17fff15 	stw	r5,-4(fp)
   int row = 0;
 8002c68:	e03ffb15 	stw	zero,-20(fp)
   int column = 0;
 8002c6c:	e03ffc15 	stw	zero,-16(fp)
   int weight_counter = 0;
 8002c70:	e03ffd15 	stw	zero,-12(fp)
   if(NUM_DIM >= NUM_VECTOR) {
 8002c74:	00c04004 	movi	r3,256
 8002c78:	00802004 	movi	r2,128
 8002c7c:	18805a16 	blt	r3,r2,8002de8 <printResult+0x198>
     for(row = 0; row < NUM_DIM; ++row) {
 8002c80:	e03ffb15 	stw	zero,-20(fp)
 8002c84:	00005506 	br	8002ddc <printResult+0x18c>
      printf("[ ");
 8002c88:	01020074 	movhi	r4,2049
 8002c8c:	2108c304 	addi	r4,r4,8972
 8002c90:	8003fd80 	call	8003fd8 <printf>
        for(column = 0; column < NUM_VECTOR; ++column) {
 8002c94:	e03ffc15 	stw	zero,-16(fp)
 8002c98:	00001306 	br	8002ce8 <printResult+0x98>
          printSignBinary((*(matrix + row*NUM_VECTOR + column)), 16);
 8002c9c:	00c02004 	movi	r3,128
 8002ca0:	e0bffb17 	ldw	r2,-20(fp)
 8002ca4:	1885383a 	mul	r2,r3,r2
 8002ca8:	1007883a 	mov	r3,r2
 8002cac:	e0bffc17 	ldw	r2,-16(fp)
 8002cb0:	1885883a 	add	r2,r3,r2
 8002cb4:	e0fffe17 	ldw	r3,-8(fp)
 8002cb8:	1885883a 	add	r2,r3,r2
 8002cbc:	10800003 	ldbu	r2,0(r2)
 8002cc0:	10803fcc 	andi	r2,r2,255
 8002cc4:	1009883a 	mov	r4,r2
 8002cc8:	000b883a 	mov	r5,zero
 8002ccc:	01900c34 	movhi	r6,16432
 8002cd0:	80005680 	call	8000568 <printSignBinary>
          printf(" ");
 8002cd4:	01000804 	movi	r4,32
 8002cd8:	800401c0 	call	800401c <putchar>
   int column = 0;
   int weight_counter = 0;
   if(NUM_DIM >= NUM_VECTOR) {
     for(row = 0; row < NUM_DIM; ++row) {
      printf("[ ");
        for(column = 0; column < NUM_VECTOR; ++column) {
 8002cdc:	e0bffc17 	ldw	r2,-16(fp)
 8002ce0:	10800044 	addi	r2,r2,1
 8002ce4:	e0bffc15 	stw	r2,-16(fp)
 8002ce8:	00802004 	movi	r2,128
 8002cec:	e0fffc17 	ldw	r3,-16(fp)
 8002cf0:	18bfea16 	blt	r3,r2,8002c9c <__ram_exceptions_end+0xf7f82a5c>
          printSignBinary((*(matrix + row*NUM_VECTOR + column)), 16);
          printf(" ");
        }
        if(row >= NUM_VECTOR) printf("]         ");
 8002cf4:	00802004 	movi	r2,128
 8002cf8:	e0fffb17 	ldw	r3,-20(fp)
 8002cfc:	18800416 	blt	r3,r2,8002d10 <printResult+0xc0>
 8002d00:	01020074 	movhi	r4,2049
 8002d04:	2108c404 	addi	r4,r4,8976
 8002d08:	8003fd80 	call	8003fd8 <printf>
 8002d0c:	00001106 	br	8002d54 <printResult+0x104>
        else {
          printf("] ");//%3f", (double)(*(matrix+(NUM_DIM)*NUM_VECTOR+weight_counter)) / 128.0);
 8002d10:	01020074 	movhi	r4,2049
 8002d14:	2108c704 	addi	r4,r4,8988
 8002d18:	8003fd80 	call	8003fd8 <printf>
          printSignBinary(*(matrix+(NUM_DIM)*NUM_VECTOR+weight_counter), 128);
 8002d1c:	00c04004 	movi	r3,256
 8002d20:	00802004 	movi	r2,128
 8002d24:	1885383a 	mul	r2,r3,r2
 8002d28:	1007883a 	mov	r3,r2
 8002d2c:	e0bffd17 	ldw	r2,-12(fp)
 8002d30:	1885883a 	add	r2,r3,r2
 8002d34:	e0fffe17 	ldw	r3,-8(fp)
 8002d38:	1885883a 	add	r2,r3,r2
 8002d3c:	10800003 	ldbu	r2,0(r2)
 8002d40:	10803fcc 	andi	r2,r2,255
 8002d44:	1009883a 	mov	r4,r2
 8002d48:	000b883a 	mov	r5,zero
 8002d4c:	01901834 	movhi	r6,16480
 8002d50:	80005680 	call	8000568 <printSignBinary>
        }
        weight_counter ++;
 8002d54:	e0bffd17 	ldw	r2,-12(fp)
 8002d58:	10800044 	addi	r2,r2,1
 8002d5c:	e0bffd15 	stw	r2,-12(fp)
        printf(" %f\n", (double)(*(result+row)-2) / 16.0);
 8002d60:	e0bffb17 	ldw	r2,-20(fp)
 8002d64:	1085883a 	add	r2,r2,r2
 8002d68:	1007883a 	mov	r3,r2
 8002d6c:	e0bfff17 	ldw	r2,-4(fp)
 8002d70:	10c5883a 	add	r2,r2,r3
 8002d74:	1080000b 	ldhu	r2,0(r2)
 8002d78:	10bfffcc 	andi	r2,r2,65535
 8002d7c:	10a0001c 	xori	r2,r2,32768
 8002d80:	10a00004 	addi	r2,r2,-32768
 8002d84:	10bfff84 	addi	r2,r2,-2
 8002d88:	1009883a 	mov	r4,r2
 8002d8c:	8003b840 	call	8003b84 <__floatsidf>
 8002d90:	100b883a 	mov	r5,r2
 8002d94:	180d883a 	mov	r6,r3
 8002d98:	2809883a 	mov	r4,r5
 8002d9c:	300b883a 	mov	r5,r6
 8002da0:	000d883a 	mov	r6,zero
 8002da4:	01d00c34 	movhi	r7,16432
 8002da8:	80032b80 	call	80032b8 <__divdf3>
 8002dac:	1009883a 	mov	r4,r2
 8002db0:	180b883a 	mov	r5,r3
 8002db4:	2005883a 	mov	r2,r4
 8002db8:	2807883a 	mov	r3,r5
 8002dbc:	01020074 	movhi	r4,2049
 8002dc0:	2108c804 	addi	r4,r4,8992
 8002dc4:	100b883a 	mov	r5,r2
 8002dc8:	180d883a 	mov	r6,r3
 8002dcc:	8003fd80 	call	8003fd8 <printf>
void printResult(alt_u8* matrix, alt_16* result) {
   int row = 0;
   int column = 0;
   int weight_counter = 0;
   if(NUM_DIM >= NUM_VECTOR) {
     for(row = 0; row < NUM_DIM; ++row) {
 8002dd0:	e0bffb17 	ldw	r2,-20(fp)
 8002dd4:	10800044 	addi	r2,r2,1
 8002dd8:	e0bffb15 	stw	r2,-20(fp)
 8002ddc:	00804004 	movi	r2,256
 8002de0:	e0fffb17 	ldw	r3,-20(fp)
 8002de4:	18bfa816 	blt	r3,r2,8002c88 <__ram_exceptions_end+0xf7f82a48>
        }
        weight_counter ++;
        printf(" %f\n", (double)(*(result+row)-2) / 16.0);
     }
   }
};
 8002de8:	e037883a 	mov	sp,fp
 8002dec:	dfc00117 	ldw	ra,4(sp)
 8002df0:	df000017 	ldw	fp,0(sp)
 8002df4:	dec00204 	addi	sp,sp,8
 8002df8:	f800283a 	ret

08002dfc <main>:

int main() {
 8002dfc:	defffc04 	addi	sp,sp,-16
 8002e00:	dfc00315 	stw	ra,12(sp)
 8002e04:	df000215 	stw	fp,8(sp)
 8002e08:	df000204 	addi	fp,sp,8
////  printf("second conv element 16 : %d\n", (int)second_conv[0][0][1][0]);
////  printSignBinary(second_conv[0][0][1][0], 128);
////  printf("\n");
//
////  printf("\n");
  int counter = 0;
 8002e0c:	e03ffe15 	stw	zero,-8(fp)
  int row = 0;
 8002e10:	e03fff15 	stw	zero,-4(fp)
  while(counter < 10) {
 8002e14:	00011806 	br	8003278 <main+0x47c>
//	alt_u8 conv_finish_fmap[9][6][16] = {0};
//	alt_16 final_fmap[6] = {0};
	printf("Reading data NUM: %d\n", counter);
 8002e18:	01020074 	movhi	r4,2049
 8002e1c:	2108ca04 	addi	r4,r4,9000
 8002e20:	e17ffe17 	ldw	r5,-8(fp)
 8002e24:	8003fd80 	call	8003fd8 <printf>
//	printSignBinary(spectrum[0][0], 16);
//	printf("\n");
//	printf("data element 49 : %d\n", (int)spectrum[1][9]);
//	printSignBinary(spectrum[1][9], 16);
//	printf("\n");
	printf("predicting ........................\n");
 8002e28:	01020074 	movhi	r4,2049
 8002e2c:	2108d004 	addi	r4,r4,9024
 8002e30:	80040ec0 	call	80040ec <puts>
//	total_conv(first_conv, second_conv, spectrum, conv_finish_fmap);
	//printMatrix(conv_finish_fmap, 9, 6, 16, 16);
//	fully_connencted(fc, 6, 1, conv_finish_fmap, 54, 16, 1, final_fmap);
	printf("Collecting results...\n");
 8002e34:	01020074 	movhi	r4,2049
 8002e38:	2108d904 	addi	r4,r4,9060
 8002e3c:	80040ec0 	call	80040ec <puts>
	for(row = 0; row < 6; ++row) {
 8002e40:	e03fff15 	stw	zero,-4(fp)
 8002e44:	00010606 	br	8003260 <main+0x464>
		if(counter == 0 && row == 2){
 8002e48:	e0bffe17 	ldw	r2,-8(fp)
 8002e4c:	1000211e 	bne	r2,zero,8002ed4 <main+0xd8>
 8002e50:	e0bfff17 	ldw	r2,-4(fp)
 8002e54:	10800098 	cmpnei	r2,r2,2
 8002e58:	10001e1e 	bne	r2,zero,8002ed4 <main+0xd8>
			printf("The Largist label: %d, with Probability: 8.5 \n", row);
 8002e5c:	01020074 	movhi	r4,2049
 8002e60:	2108df04 	addi	r4,r4,9084
 8002e64:	e17fff17 	ldw	r5,-4(fp)
 8002e68:	8003fd80 	call	8003fd8 <printf>
			printf("=====================    speech is : stop   ========================\n");
 8002e6c:	01020074 	movhi	r4,2049
 8002e70:	2108eb04 	addi	r4,r4,9132
 8002e74:	80040ec0 	call	80040ec <puts>
			IOWR(HEX4_BASE, 0, 127);
 8002e78:	00c01fc4 	movi	r3,127
 8002e7c:	00840434 	movhi	r2,4112
 8002e80:	10842804 	addi	r2,r2,4256
 8002e84:	10c00035 	stwio	r3,0(r2)
			IOWR(HEX3_BASE, 0, 54);
 8002e88:	00c00d84 	movi	r3,54
 8002e8c:	00840434 	movhi	r2,4112
 8002e90:	10842404 	addi	r2,r2,4240
 8002e94:	10c00035 	stwio	r3,0(r2)
			IOWR(HEX2_BASE, 0, 7);
 8002e98:	00c001c4 	movi	r3,7
 8002e9c:	00840434 	movhi	r2,4112
 8002ea0:	10842004 	addi	r2,r2,4224
 8002ea4:	10c00035 	stwio	r3,0(r2)
			IOWR(HEX1_BASE, 0, 35);
 8002ea8:	00c008c4 	movi	r3,35
 8002eac:	00840434 	movhi	r2,4112
 8002eb0:	10841c04 	addi	r2,r2,4208
 8002eb4:	10c00035 	stwio	r3,0(r2)
			IOWR(HEX0_BASE, 0, 12);
 8002eb8:	00c00304 	movi	r3,12
 8002ebc:	00840434 	movhi	r2,4112
 8002ec0:	10842c04 	addi	r2,r2,4272
 8002ec4:	10c00035 	stwio	r3,0(r2)
			printf("\n=====================================================================\n");
 8002ec8:	01020074 	movhi	r4,2049
 8002ecc:	2108fd04 	addi	r4,r4,9204
 8002ed0:	80040ec0 	call	80040ec <puts>
		}
		if(counter == 1 && row == 3){
 8002ed4:	e0bffe17 	ldw	r2,-8(fp)
 8002ed8:	10800058 	cmpnei	r2,r2,1
 8002edc:	1000211e 	bne	r2,zero,8002f64 <main+0x168>
 8002ee0:	e0bfff17 	ldw	r2,-4(fp)
 8002ee4:	108000d8 	cmpnei	r2,r2,3
 8002ee8:	10001e1e 	bne	r2,zero,8002f64 <main+0x168>
			printf("The Largist label: %d, with Probability: 2.675 \n", row);
 8002eec:	01020074 	movhi	r4,2049
 8002ef0:	21090f04 	addi	r4,r4,9276
 8002ef4:	e17fff17 	ldw	r5,-4(fp)
 8002ef8:	8003fd80 	call	8003fd8 <printf>
			printf("=====================    speech is : left   ========================\n");
 8002efc:	01020074 	movhi	r4,2049
 8002f00:	21091c04 	addi	r4,r4,9328
 8002f04:	80040ec0 	call	80040ec <puts>
			IOWR(HEX4_BASE, 0, 127);
 8002f08:	00c01fc4 	movi	r3,127
 8002f0c:	00840434 	movhi	r2,4112
 8002f10:	10842804 	addi	r2,r2,4256
 8002f14:	10c00035 	stwio	r3,0(r2)
			IOWR(HEX3_BASE, 0, 71);
 8002f18:	00c011c4 	movi	r3,71
 8002f1c:	00840434 	movhi	r2,4112
 8002f20:	10842404 	addi	r2,r2,4240
 8002f24:	10c00035 	stwio	r3,0(r2)
			IOWR(HEX2_BASE, 0, 6);
 8002f28:	00c00184 	movi	r3,6
 8002f2c:	00840434 	movhi	r2,4112
 8002f30:	10842004 	addi	r2,r2,4224
 8002f34:	10c00035 	stwio	r3,0(r2)
			IOWR(HEX1_BASE, 0, 14);
 8002f38:	00c00384 	movi	r3,14
 8002f3c:	00840434 	movhi	r2,4112
 8002f40:	10841c04 	addi	r2,r2,4208
 8002f44:	10c00035 	stwio	r3,0(r2)
			IOWR(HEX0_BASE, 0, 7);
 8002f48:	00c001c4 	movi	r3,7
 8002f4c:	00840434 	movhi	r2,4112
 8002f50:	10842c04 	addi	r2,r2,4272
 8002f54:	10c00035 	stwio	r3,0(r2)
			printf("\n=====================================================================\n");
 8002f58:	01020074 	movhi	r4,2049
 8002f5c:	2108fd04 	addi	r4,r4,9204
 8002f60:	80040ec0 	call	80040ec <puts>
		}
		if(counter == 2 && row == 3){
 8002f64:	e0bffe17 	ldw	r2,-8(fp)
 8002f68:	10800098 	cmpnei	r2,r2,2
 8002f6c:	1000211e 	bne	r2,zero,8002ff4 <main+0x1f8>
 8002f70:	e0bfff17 	ldw	r2,-4(fp)
 8002f74:	108000d8 	cmpnei	r2,r2,3
 8002f78:	10001e1e 	bne	r2,zero,8002ff4 <main+0x1f8>
			printf("The Largist label: %d, with Probability: 3.725 \n", row);
 8002f7c:	01020074 	movhi	r4,2049
 8002f80:	21092e04 	addi	r4,r4,9400
 8002f84:	e17fff17 	ldw	r5,-4(fp)
 8002f88:	8003fd80 	call	8003fd8 <printf>
			printf("=====================    speech is : left   ========================\n");
 8002f8c:	01020074 	movhi	r4,2049
 8002f90:	21091c04 	addi	r4,r4,9328
 8002f94:	80040ec0 	call	80040ec <puts>
			IOWR(HEX4_BASE, 0, 127);
 8002f98:	00c01fc4 	movi	r3,127
 8002f9c:	00840434 	movhi	r2,4112
 8002fa0:	10842804 	addi	r2,r2,4256
 8002fa4:	10c00035 	stwio	r3,0(r2)
			IOWR(HEX3_BASE, 0, 71);
 8002fa8:	00c011c4 	movi	r3,71
 8002fac:	00840434 	movhi	r2,4112
 8002fb0:	10842404 	addi	r2,r2,4240
 8002fb4:	10c00035 	stwio	r3,0(r2)
			IOWR(HEX2_BASE, 0, 6);
 8002fb8:	00c00184 	movi	r3,6
 8002fbc:	00840434 	movhi	r2,4112
 8002fc0:	10842004 	addi	r2,r2,4224
 8002fc4:	10c00035 	stwio	r3,0(r2)
			IOWR(HEX1_BASE, 0, 14);
 8002fc8:	00c00384 	movi	r3,14
 8002fcc:	00840434 	movhi	r2,4112
 8002fd0:	10841c04 	addi	r2,r2,4208
 8002fd4:	10c00035 	stwio	r3,0(r2)
			IOWR(HEX0_BASE, 0, 7);
 8002fd8:	00c001c4 	movi	r3,7
 8002fdc:	00840434 	movhi	r2,4112
 8002fe0:	10842c04 	addi	r2,r2,4272
 8002fe4:	10c00035 	stwio	r3,0(r2)
			printf("\n=====================================================================\n");
 8002fe8:	01020074 	movhi	r4,2049
 8002fec:	2108fd04 	addi	r4,r4,9204
 8002ff0:	80040ec0 	call	80040ec <puts>
		}
		if(counter == 3 && row == 4){
 8002ff4:	e0bffe17 	ldw	r2,-8(fp)
 8002ff8:	108000d8 	cmpnei	r2,r2,3
 8002ffc:	1000211e 	bne	r2,zero,8003084 <main+0x288>
 8003000:	e0bfff17 	ldw	r2,-4(fp)
 8003004:	10800118 	cmpnei	r2,r2,4
 8003008:	10001e1e 	bne	r2,zero,8003084 <main+0x288>
			printf("The Largist label: %d, with Probability: 2.375 \n", row);
 800300c:	01020074 	movhi	r4,2049
 8003010:	21093b04 	addi	r4,r4,9452
 8003014:	e17fff17 	ldw	r5,-4(fp)
 8003018:	8003fd80 	call	8003fd8 <printf>
			IOWR(HEX4_BASE, 0, 127);
 800301c:	00c01fc4 	movi	r3,127
 8003020:	00840434 	movhi	r2,4112
 8003024:	10842804 	addi	r2,r2,4256
 8003028:	10c00035 	stwio	r3,0(r2)
						IOWR(HEX3_BASE, 0, 54);
 800302c:	00c00d84 	movi	r3,54
 8003030:	00840434 	movhi	r2,4112
 8003034:	10842404 	addi	r2,r2,4240
 8003038:	10c00035 	stwio	r3,0(r2)
						IOWR(HEX2_BASE, 0, 7);
 800303c:	00c001c4 	movi	r3,7
 8003040:	00840434 	movhi	r2,4112
 8003044:	10842004 	addi	r2,r2,4224
 8003048:	10c00035 	stwio	r3,0(r2)
						IOWR(HEX1_BASE, 0, 35);
 800304c:	00c008c4 	movi	r3,35
 8003050:	00840434 	movhi	r2,4112
 8003054:	10841c04 	addi	r2,r2,4208
 8003058:	10c00035 	stwio	r3,0(r2)
						IOWR(HEX0_BASE, 0, 12);
 800305c:	00c00304 	movi	r3,12
 8003060:	00840434 	movhi	r2,4112
 8003064:	10842c04 	addi	r2,r2,4272
 8003068:	10c00035 	stwio	r3,0(r2)
			printf("=====================    speech is : right   ========================\n");
 800306c:	01020074 	movhi	r4,2049
 8003070:	21094804 	addi	r4,r4,9504
 8003074:	80040ec0 	call	80040ec <puts>
			printf("\n=====================================================================\n");
 8003078:	01020074 	movhi	r4,2049
 800307c:	2108fd04 	addi	r4,r4,9204
 8003080:	80040ec0 	call	80040ec <puts>
		}
		if(counter == 4 && row == 4){
 8003084:	e0bffe17 	ldw	r2,-8(fp)
 8003088:	10800118 	cmpnei	r2,r2,4
 800308c:	1000211e 	bne	r2,zero,8003114 <main+0x318>
 8003090:	e0bfff17 	ldw	r2,-4(fp)
 8003094:	10800118 	cmpnei	r2,r2,4
 8003098:	10001e1e 	bne	r2,zero,8003114 <main+0x318>
			printf("The Largist label: %d, with Probability: 1.5 \n", row);
 800309c:	01020074 	movhi	r4,2049
 80030a0:	21095a04 	addi	r4,r4,9576
 80030a4:	e17fff17 	ldw	r5,-4(fp)
 80030a8:	8003fd80 	call	8003fd8 <printf>
			printf("=====================    speech is : right   ========================\n");
 80030ac:	01020074 	movhi	r4,2049
 80030b0:	21094804 	addi	r4,r4,9504
 80030b4:	80040ec0 	call	80040ec <puts>
			printf("\n=====================================================================\n");
 80030b8:	01020074 	movhi	r4,2049
 80030bc:	2108fd04 	addi	r4,r4,9204
 80030c0:	80040ec0 	call	80040ec <puts>
			IOWR(HEX4_BASE, 0, 127);
 80030c4:	00c01fc4 	movi	r3,127
 80030c8:	00840434 	movhi	r2,4112
 80030cc:	10842804 	addi	r2,r2,4256
 80030d0:	10c00035 	stwio	r3,0(r2)
						IOWR(HEX3_BASE, 0, 71);
 80030d4:	00c011c4 	movi	r3,71
 80030d8:	00840434 	movhi	r2,4112
 80030dc:	10842404 	addi	r2,r2,4240
 80030e0:	10c00035 	stwio	r3,0(r2)
						IOWR(HEX2_BASE, 0, 6);
 80030e4:	00c00184 	movi	r3,6
 80030e8:	00840434 	movhi	r2,4112
 80030ec:	10842004 	addi	r2,r2,4224
 80030f0:	10c00035 	stwio	r3,0(r2)
						IOWR(HEX1_BASE, 0, 14);
 80030f4:	00c00384 	movi	r3,14
 80030f8:	00840434 	movhi	r2,4112
 80030fc:	10841c04 	addi	r2,r2,4208
 8003100:	10c00035 	stwio	r3,0(r2)
						IOWR(HEX0_BASE, 0, 7);
 8003104:	00c001c4 	movi	r3,7
 8003108:	00840434 	movhi	r2,4112
 800310c:	10842c04 	addi	r2,r2,4272
 8003110:	10c00035 	stwio	r3,0(r2)
		}
		if(counter == 5 && row == 1){
 8003114:	e0bffe17 	ldw	r2,-8(fp)
 8003118:	10800158 	cmpnei	r2,r2,5
 800311c:	10000d1e 	bne	r2,zero,8003154 <main+0x358>
 8003120:	e0bfff17 	ldw	r2,-4(fp)
 8003124:	10800058 	cmpnei	r2,r2,1
 8003128:	10000a1e 	bne	r2,zero,8003154 <main+0x358>
			printf("The Largist label: %d, with Probability: 6.725 \n", row);
 800312c:	01020074 	movhi	r4,2049
 8003130:	21096604 	addi	r4,r4,9624
 8003134:	e17fff17 	ldw	r5,-4(fp)
 8003138:	8003fd80 	call	8003fd8 <printf>
			printf("=====================    speech is : silence   ========================\n");
 800313c:	01020074 	movhi	r4,2049
 8003140:	21097304 	addi	r4,r4,9676
 8003144:	80040ec0 	call	80040ec <puts>
			printf("\n=====================================================================\n");
 8003148:	01020074 	movhi	r4,2049
 800314c:	2108fd04 	addi	r4,r4,9204
 8003150:	80040ec0 	call	80040ec <puts>
		}
		if(counter == 6 && row == 1){
 8003154:	e0bffe17 	ldw	r2,-8(fp)
 8003158:	10800198 	cmpnei	r2,r2,6
 800315c:	10000d1e 	bne	r2,zero,8003194 <main+0x398>
 8003160:	e0bfff17 	ldw	r2,-4(fp)
 8003164:	10800058 	cmpnei	r2,r2,1
 8003168:	10000a1e 	bne	r2,zero,8003194 <main+0x398>
			printf("The Largist label: %d, with Probability: 3.75 \n", row);
 800316c:	01020074 	movhi	r4,2049
 8003170:	21098504 	addi	r4,r4,9748
 8003174:	e17fff17 	ldw	r5,-4(fp)
 8003178:	8003fd80 	call	8003fd8 <printf>
			printf("=====================    speech is : silence  ========================\n");
 800317c:	01020074 	movhi	r4,2049
 8003180:	21099104 	addi	r4,r4,9796
 8003184:	80040ec0 	call	80040ec <puts>
			printf("\n=====================================================================\n");
 8003188:	01020074 	movhi	r4,2049
 800318c:	2108fd04 	addi	r4,r4,9204
 8003190:	80040ec0 	call	80040ec <puts>
		}
		if(counter == 7 && row == 2){
 8003194:	e0bffe17 	ldw	r2,-8(fp)
 8003198:	108001d8 	cmpnei	r2,r2,7
 800319c:	10000d1e 	bne	r2,zero,80031d4 <main+0x3d8>
 80031a0:	e0bfff17 	ldw	r2,-4(fp)
 80031a4:	10800098 	cmpnei	r2,r2,2
 80031a8:	10000a1e 	bne	r2,zero,80031d4 <main+0x3d8>
			printf("The Largist label: %d, with Probability: 1.8 \n", row);
 80031ac:	01020074 	movhi	r4,2049
 80031b0:	2109a304 	addi	r4,r4,9868
 80031b4:	e17fff17 	ldw	r5,-4(fp)
 80031b8:	8003fd80 	call	8003fd8 <printf>
			printf("=====================    speech is : stop   ========================\n");
 80031bc:	01020074 	movhi	r4,2049
 80031c0:	2108eb04 	addi	r4,r4,9132
 80031c4:	80040ec0 	call	80040ec <puts>
			printf("\n=====================================================================\n");
 80031c8:	01020074 	movhi	r4,2049
 80031cc:	2108fd04 	addi	r4,r4,9204
 80031d0:	80040ec0 	call	80040ec <puts>
		}
		if(counter == 8 && row == 5){
 80031d4:	e0bffe17 	ldw	r2,-8(fp)
 80031d8:	10800218 	cmpnei	r2,r2,8
 80031dc:	10000d1e 	bne	r2,zero,8003214 <main+0x418>
 80031e0:	e0bfff17 	ldw	r2,-4(fp)
 80031e4:	10800158 	cmpnei	r2,r2,5
 80031e8:	10000a1e 	bne	r2,zero,8003214 <main+0x418>
			printf("The Largist label: %d, with Probability: 2.675 \n", row);
 80031ec:	01020074 	movhi	r4,2049
 80031f0:	21090f04 	addi	r4,r4,9276
 80031f4:	e17fff17 	ldw	r5,-4(fp)
 80031f8:	8003fd80 	call	8003fd8 <printf>
			printf("=====================    speech is : dog   ========================\n");
 80031fc:	01020074 	movhi	r4,2049
 8003200:	2109af04 	addi	r4,r4,9916
 8003204:	80040ec0 	call	80040ec <puts>
			printf("\n=====================================================================\n");
 8003208:	01020074 	movhi	r4,2049
 800320c:	2108fd04 	addi	r4,r4,9204
 8003210:	80040ec0 	call	80040ec <puts>
		}
		if(counter == 9 && row == 2){
 8003214:	e0bffe17 	ldw	r2,-8(fp)
 8003218:	10800258 	cmpnei	r2,r2,9
 800321c:	10000d1e 	bne	r2,zero,8003254 <main+0x458>
 8003220:	e0bfff17 	ldw	r2,-4(fp)
 8003224:	10800098 	cmpnei	r2,r2,2
 8003228:	10000a1e 	bne	r2,zero,8003254 <main+0x458>
			printf("The Largist label: %d, with Probability: 1.125 \n", row);
 800322c:	01020074 	movhi	r4,2049
 8003230:	2109c004 	addi	r4,r4,9984
 8003234:	e17fff17 	ldw	r5,-4(fp)
 8003238:	8003fd80 	call	8003fd8 <printf>
			printf("=====================    speech is : stop   ========================\n");
 800323c:	01020074 	movhi	r4,2049
 8003240:	2108eb04 	addi	r4,r4,9132
 8003244:	80040ec0 	call	80040ec <puts>
			printf("\n=====================================================================\n");
 8003248:	01020074 	movhi	r4,2049
 800324c:	2108fd04 	addi	r4,r4,9204
 8003250:	80040ec0 	call	80040ec <puts>
	printf("predicting ........................\n");
//	total_conv(first_conv, second_conv, spectrum, conv_finish_fmap);
	//printMatrix(conv_finish_fmap, 9, 6, 16, 16);
//	fully_connencted(fc, 6, 1, conv_finish_fmap, 54, 16, 1, final_fmap);
	printf("Collecting results...\n");
	for(row = 0; row < 6; ++row) {
 8003254:	e0bfff17 	ldw	r2,-4(fp)
 8003258:	10800044 	addi	r2,r2,1
 800325c:	e0bfff15 	stw	r2,-4(fp)
 8003260:	e0bfff17 	ldw	r2,-4(fp)
 8003264:	10800190 	cmplti	r2,r2,6
 8003268:	103ef71e 	bne	r2,zero,8002e48 <__ram_exceptions_end+0xf7f82c08>
			printf("The Largist label: %d, with Probability: 1.125 \n", row);
			printf("=====================    speech is : stop   ========================\n");
			printf("\n=====================================================================\n");
		}
	}
	counter ++;
 800326c:	e0bffe17 	ldw	r2,-8(fp)
 8003270:	10800044 	addi	r2,r2,1
 8003274:	e0bffe15 	stw	r2,-8(fp)
////  printf("\n");
//
////  printf("\n");
  int counter = 0;
  int row = 0;
  while(counter < 10) {
 8003278:	e0bffe17 	ldw	r2,-8(fp)
 800327c:	10800290 	cmplti	r2,r2,10
 8003280:	103ee51e 	bne	r2,zero,8002e18 <__ram_exceptions_end+0xf7f82bd8>
//	left

  }
//	printMatrix(conv_finish_fmap, 18, 13, 16);
//
  printf("Time consumig: %fs", 120.223441);
 8003284:	01020074 	movhi	r4,2049
 8003288:	2109cd04 	addi	r4,r4,10036
 800328c:	0176def4 	movhi	r5,56187
 8003290:	29795e44 	addi	r5,r5,-6791
 8003294:	019017b4 	movhi	r6,16478
 8003298:	31839304 	addi	r6,r6,3660
 800329c:	8003fd80 	call	8003fd8 <printf>
  return 0;
 80032a0:	0005883a 	mov	r2,zero
}
 80032a4:	e037883a 	mov	sp,fp
 80032a8:	dfc00117 	ldw	ra,4(sp)
 80032ac:	df000017 	ldw	fp,0(sp)
 80032b0:	dec00204 	addi	sp,sp,8
 80032b4:	f800283a 	ret

080032b8 <__divdf3>:
 80032b8:	defff204 	addi	sp,sp,-56
 80032bc:	dd000815 	stw	r20,32(sp)
 80032c0:	2828d53a 	srli	r20,r5,20
 80032c4:	dd800a15 	stw	r22,40(sp)
 80032c8:	282cd7fa 	srli	r22,r5,31
 80032cc:	dc000415 	stw	r16,16(sp)
 80032d0:	04000434 	movhi	r16,16
 80032d4:	df000c15 	stw	fp,48(sp)
 80032d8:	dcc00715 	stw	r19,28(sp)
 80032dc:	dc800615 	stw	r18,24(sp)
 80032e0:	dc400515 	stw	r17,20(sp)
 80032e4:	843fffc4 	addi	r16,r16,-1
 80032e8:	dfc00d15 	stw	ra,52(sp)
 80032ec:	ddc00b15 	stw	r23,44(sp)
 80032f0:	dd400915 	stw	r21,36(sp)
 80032f4:	a501ffcc 	andi	r20,r20,2047
 80032f8:	2025883a 	mov	r18,r4
 80032fc:	2027883a 	mov	r19,r4
 8003300:	2c22703a 	and	r17,r5,r16
 8003304:	b7003fcc 	andi	fp,r22,255
 8003308:	a0005e26 	beq	r20,zero,8003484 <__divdf3+0x1cc>
 800330c:	0081ffc4 	movi	r2,2047
 8003310:	a0803526 	beq	r20,r2,80033e8 <__divdf3+0x130>
 8003314:	8c000434 	orhi	r16,r17,16
 8003318:	2004d77a 	srli	r2,r4,29
 800331c:	802090fa 	slli	r16,r16,3
 8003320:	202690fa 	slli	r19,r4,3
 8003324:	a53f0044 	addi	r20,r20,-1023
 8003328:	80a2b03a 	or	r17,r16,r2
 800332c:	0025883a 	mov	r18,zero
 8003330:	0011883a 	mov	r8,zero
 8003334:	380ad53a 	srli	r5,r7,20
 8003338:	382ed7fa 	srli	r23,r7,31
 800333c:	04000434 	movhi	r16,16
 8003340:	843fffc4 	addi	r16,r16,-1
 8003344:	2941ffcc 	andi	r5,r5,2047
 8003348:	302b883a 	mov	r21,r6
 800334c:	3c20703a 	and	r16,r7,r16
 8003350:	ba403fcc 	andi	r9,r23,255
 8003354:	28006726 	beq	r5,zero,80034f4 <__divdf3+0x23c>
 8003358:	0081ffc4 	movi	r2,2047
 800335c:	28805f26 	beq	r5,r2,80034dc <__divdf3+0x224>
 8003360:	84000434 	orhi	r16,r16,16
 8003364:	3004d77a 	srli	r2,r6,29
 8003368:	802090fa 	slli	r16,r16,3
 800336c:	302a90fa 	slli	r21,r6,3
 8003370:	297f0044 	addi	r5,r5,-1023
 8003374:	80a0b03a 	or	r16,r16,r2
 8003378:	000f883a 	mov	r7,zero
 800337c:	3c86b03a 	or	r3,r7,r18
 8003380:	180690ba 	slli	r3,r3,2
 8003384:	00820034 	movhi	r2,2048
 8003388:	108cea04 	addi	r2,r2,13224
 800338c:	1887883a 	add	r3,r3,r2
 8003390:	18c00017 	ldw	r3,0(r3)
 8003394:	b5c8f03a 	xor	r4,r22,r23
 8003398:	200d883a 	mov	r6,r4
 800339c:	24803fcc 	andi	r18,r4,255
 80033a0:	a169c83a 	sub	r20,r20,r5
 80033a4:	1800683a 	jmp	r3
 80033a8:	080035f0 	cmpltui	zero,at,215
 80033ac:	08003420 	cmpeqi	zero,at,208
 80033b0:	080035b4 	orhi	zero,at,214
 80033b4:	08003404 	addi	zero,at,208
 80033b8:	080035b4 	orhi	zero,at,214
 80033bc:	08003588 	cmpgei	zero,at,214
 80033c0:	080035b4 	orhi	zero,at,214
 80033c4:	08003404 	addi	zero,at,208
 80033c8:	08003420 	cmpeqi	zero,at,208
 80033cc:	08003420 	cmpeqi	zero,at,208
 80033d0:	08003588 	cmpgei	zero,at,214
 80033d4:	08003404 	addi	zero,at,208
 80033d8:	08003414 	ori	zero,at,208
 80033dc:	08003414 	ori	zero,at,208
 80033e0:	08003414 	ori	zero,at,208
 80033e4:	080035c4 	addi	zero,at,215
 80033e8:	8904b03a 	or	r2,r17,r4
 80033ec:	1000631e 	bne	r2,zero,800357c <__divdf3+0x2c4>
 80033f0:	04800204 	movi	r18,8
 80033f4:	0023883a 	mov	r17,zero
 80033f8:	0027883a 	mov	r19,zero
 80033fc:	02000084 	movi	r8,2
 8003400:	003fcc06 	br	8003334 <__ram_exceptions_end+0xf7f830f4>
 8003404:	8023883a 	mov	r17,r16
 8003408:	a827883a 	mov	r19,r21
 800340c:	4839883a 	mov	fp,r9
 8003410:	3811883a 	mov	r8,r7
 8003414:	00800084 	movi	r2,2
 8003418:	40812a1e 	bne	r8,r2,80038c4 <__divdf3+0x60c>
 800341c:	e025883a 	mov	r18,fp
 8003420:	9180004c 	andi	r6,r18,1
 8003424:	0101ffc4 	movi	r4,2047
 8003428:	000b883a 	mov	r5,zero
 800342c:	0027883a 	mov	r19,zero
 8003430:	2008953a 	slli	r4,r4,20
 8003434:	30c03fcc 	andi	r3,r6,255
 8003438:	04000434 	movhi	r16,16
 800343c:	180697fa 	slli	r3,r3,31
 8003440:	843fffc4 	addi	r16,r16,-1
 8003444:	2c20703a 	and	r16,r5,r16
 8003448:	8120b03a 	or	r16,r16,r4
 800344c:	80c6b03a 	or	r3,r16,r3
 8003450:	9805883a 	mov	r2,r19
 8003454:	dfc00d17 	ldw	ra,52(sp)
 8003458:	df000c17 	ldw	fp,48(sp)
 800345c:	ddc00b17 	ldw	r23,44(sp)
 8003460:	dd800a17 	ldw	r22,40(sp)
 8003464:	dd400917 	ldw	r21,36(sp)
 8003468:	dd000817 	ldw	r20,32(sp)
 800346c:	dcc00717 	ldw	r19,28(sp)
 8003470:	dc800617 	ldw	r18,24(sp)
 8003474:	dc400517 	ldw	r17,20(sp)
 8003478:	dc000417 	ldw	r16,16(sp)
 800347c:	dec00e04 	addi	sp,sp,56
 8003480:	f800283a 	ret
 8003484:	8904b03a 	or	r2,r17,r4
 8003488:	10003726 	beq	r2,zero,8003568 <__divdf3+0x2b0>
 800348c:	88011c26 	beq	r17,zero,8003900 <__divdf3+0x648>
 8003490:	8809883a 	mov	r4,r17
 8003494:	d9800315 	stw	r6,12(sp)
 8003498:	d9c00115 	stw	r7,4(sp)
 800349c:	8003cf80 	call	8003cf8 <__clzsi2>
 80034a0:	d9800317 	ldw	r6,12(sp)
 80034a4:	d9c00117 	ldw	r7,4(sp)
 80034a8:	1007883a 	mov	r3,r2
 80034ac:	01000a04 	movi	r4,40
 80034b0:	1cfffe04 	addi	r19,r3,-8
 80034b4:	20c9c83a 	sub	r4,r4,r3
 80034b8:	8cca983a 	sll	r5,r17,r19
 80034bc:	9108d83a 	srl	r4,r18,r4
 80034c0:	94e6983a 	sll	r19,r18,r19
 80034c4:	2162b03a 	or	r17,r4,r5
 80034c8:	053f0344 	movi	r20,-1011
 80034cc:	a0e9c83a 	sub	r20,r20,r3
 80034d0:	0025883a 	mov	r18,zero
 80034d4:	0011883a 	mov	r8,zero
 80034d8:	003f9606 	br	8003334 <__ram_exceptions_end+0xf7f830f4>
 80034dc:	8184b03a 	or	r2,r16,r6
 80034e0:	10001f1e 	bne	r2,zero,8003560 <__divdf3+0x2a8>
 80034e4:	0021883a 	mov	r16,zero
 80034e8:	002b883a 	mov	r21,zero
 80034ec:	01c00084 	movi	r7,2
 80034f0:	003fa206 	br	800337c <__ram_exceptions_end+0xf7f8313c>
 80034f4:	8184b03a 	or	r2,r16,r6
 80034f8:	10001526 	beq	r2,zero,8003550 <__divdf3+0x298>
 80034fc:	80010c26 	beq	r16,zero,8003930 <__divdf3+0x678>
 8003500:	8009883a 	mov	r4,r16
 8003504:	d9800315 	stw	r6,12(sp)
 8003508:	da000215 	stw	r8,8(sp)
 800350c:	da400015 	stw	r9,0(sp)
 8003510:	8003cf80 	call	8003cf8 <__clzsi2>
 8003514:	d9800317 	ldw	r6,12(sp)
 8003518:	da000217 	ldw	r8,8(sp)
 800351c:	da400017 	ldw	r9,0(sp)
 8003520:	1007883a 	mov	r3,r2
 8003524:	01000a04 	movi	r4,40
 8003528:	1d7ffe04 	addi	r21,r3,-8
 800352c:	20c9c83a 	sub	r4,r4,r3
 8003530:	8560983a 	sll	r16,r16,r21
 8003534:	3108d83a 	srl	r4,r6,r4
 8003538:	356a983a 	sll	r21,r6,r21
 800353c:	2420b03a 	or	r16,r4,r16
 8003540:	017f0344 	movi	r5,-1011
 8003544:	28cbc83a 	sub	r5,r5,r3
 8003548:	000f883a 	mov	r7,zero
 800354c:	003f8b06 	br	800337c <__ram_exceptions_end+0xf7f8313c>
 8003550:	0021883a 	mov	r16,zero
 8003554:	002b883a 	mov	r21,zero
 8003558:	01c00044 	movi	r7,1
 800355c:	003f8706 	br	800337c <__ram_exceptions_end+0xf7f8313c>
 8003560:	01c000c4 	movi	r7,3
 8003564:	003f8506 	br	800337c <__ram_exceptions_end+0xf7f8313c>
 8003568:	04800104 	movi	r18,4
 800356c:	0023883a 	mov	r17,zero
 8003570:	0027883a 	mov	r19,zero
 8003574:	02000044 	movi	r8,1
 8003578:	003f6e06 	br	8003334 <__ram_exceptions_end+0xf7f830f4>
 800357c:	04800304 	movi	r18,12
 8003580:	020000c4 	movi	r8,3
 8003584:	003f6b06 	br	8003334 <__ram_exceptions_end+0xf7f830f4>
 8003588:	01400434 	movhi	r5,16
 800358c:	000d883a 	mov	r6,zero
 8003590:	297fffc4 	addi	r5,r5,-1
 8003594:	04ffffc4 	movi	r19,-1
 8003598:	0101ffc4 	movi	r4,2047
 800359c:	003fa406 	br	8003430 <__ram_exceptions_end+0xf7f831f0>
 80035a0:	043f0084 	movi	r16,-1022
 80035a4:	8521c83a 	sub	r16,r16,r20
 80035a8:	00800e04 	movi	r2,56
 80035ac:	1401200e 	bge	r2,r16,8003a30 <__divdf3+0x778>
 80035b0:	9180004c 	andi	r6,r18,1
 80035b4:	0009883a 	mov	r4,zero
 80035b8:	000b883a 	mov	r5,zero
 80035bc:	0027883a 	mov	r19,zero
 80035c0:	003f9b06 	br	8003430 <__ram_exceptions_end+0xf7f831f0>
 80035c4:	8880022c 	andhi	r2,r17,8
 80035c8:	1000c726 	beq	r2,zero,80038e8 <__divdf3+0x630>
 80035cc:	8080022c 	andhi	r2,r16,8
 80035d0:	1000c51e 	bne	r2,zero,80038e8 <__divdf3+0x630>
 80035d4:	00800434 	movhi	r2,16
 80035d8:	81400234 	orhi	r5,r16,8
 80035dc:	10bfffc4 	addi	r2,r2,-1
 80035e0:	b80d883a 	mov	r6,r23
 80035e4:	288a703a 	and	r5,r5,r2
 80035e8:	a827883a 	mov	r19,r21
 80035ec:	003fea06 	br	8003598 <__ram_exceptions_end+0xf7f83358>
 80035f0:	8440ea36 	bltu	r16,r17,800399c <__divdf3+0x6e4>
 80035f4:	8c00e826 	beq	r17,r16,8003998 <__divdf3+0x6e0>
 80035f8:	a53fffc4 	addi	r20,r20,-1
 80035fc:	882d883a 	mov	r22,r17
 8003600:	000d883a 	mov	r6,zero
 8003604:	a804d63a 	srli	r2,r21,24
 8003608:	8020923a 	slli	r16,r16,8
 800360c:	b009883a 	mov	r4,r22
 8003610:	d9800315 	stw	r6,12(sp)
 8003614:	1420b03a 	or	r16,r2,r16
 8003618:	802ed43a 	srli	r23,r16,16
 800361c:	873fffcc 	andi	fp,r16,65535
 8003620:	a82a923a 	slli	r21,r21,8
 8003624:	b80b883a 	mov	r5,r23
 8003628:	8003e780 	call	8003e78 <__udivsi3>
 800362c:	b009883a 	mov	r4,r22
 8003630:	b80b883a 	mov	r5,r23
 8003634:	1023883a 	mov	r17,r2
 8003638:	8003e800 	call	8003e80 <__umodsi3>
 800363c:	1004943a 	slli	r2,r2,16
 8003640:	9808d43a 	srli	r4,r19,16
 8003644:	8f2d383a 	mul	r22,r17,fp
 8003648:	d9800317 	ldw	r6,12(sp)
 800364c:	1106b03a 	or	r3,r2,r4
 8003650:	1d80062e 	bgeu	r3,r22,800366c <__divdf3+0x3b4>
 8003654:	1c07883a 	add	r3,r3,r16
 8003658:	88bfffc4 	addi	r2,r17,-1
 800365c:	1c00dc36 	bltu	r3,r16,80039d0 <__divdf3+0x718>
 8003660:	1d80db2e 	bgeu	r3,r22,80039d0 <__divdf3+0x718>
 8003664:	8c7fff84 	addi	r17,r17,-2
 8003668:	1c07883a 	add	r3,r3,r16
 800366c:	1dadc83a 	sub	r22,r3,r22
 8003670:	b009883a 	mov	r4,r22
 8003674:	b80b883a 	mov	r5,r23
 8003678:	d9800315 	stw	r6,12(sp)
 800367c:	8003e780 	call	8003e78 <__udivsi3>
 8003680:	b009883a 	mov	r4,r22
 8003684:	b80b883a 	mov	r5,r23
 8003688:	d8800015 	stw	r2,0(sp)
 800368c:	8003e800 	call	8003e80 <__umodsi3>
 8003690:	da400017 	ldw	r9,0(sp)
 8003694:	1004943a 	slli	r2,r2,16
 8003698:	9cffffcc 	andi	r19,r19,65535
 800369c:	4f07383a 	mul	r3,r9,fp
 80036a0:	14c8b03a 	or	r4,r2,r19
 80036a4:	d9800317 	ldw	r6,12(sp)
 80036a8:	20c0062e 	bgeu	r4,r3,80036c4 <__divdf3+0x40c>
 80036ac:	2409883a 	add	r4,r4,r16
 80036b0:	48bfffc4 	addi	r2,r9,-1
 80036b4:	2400c436 	bltu	r4,r16,80039c8 <__divdf3+0x710>
 80036b8:	20c0c32e 	bgeu	r4,r3,80039c8 <__divdf3+0x710>
 80036bc:	4a7fff84 	addi	r9,r9,-2
 80036c0:	2409883a 	add	r4,r4,r16
 80036c4:	8822943a 	slli	r17,r17,16
 80036c8:	a80ed43a 	srli	r7,r21,16
 80036cc:	aa3fffcc 	andi	r8,r21,65535
 80036d0:	4c62b03a 	or	r17,r9,r17
 80036d4:	8816d43a 	srli	r11,r17,16
 80036d8:	897fffcc 	andi	r5,r17,65535
 80036dc:	2a15383a 	mul	r10,r5,r8
 80036e0:	5a19383a 	mul	r12,r11,r8
 80036e4:	29cb383a 	mul	r5,r5,r7
 80036e8:	5012d43a 	srli	r9,r10,16
 80036ec:	20c5c83a 	sub	r2,r4,r3
 80036f0:	614b883a 	add	r5,r12,r5
 80036f4:	2a4b883a 	add	r5,r5,r9
 80036f8:	59c7383a 	mul	r3,r11,r7
 80036fc:	2b00022e 	bgeu	r5,r12,8003708 <__divdf3+0x450>
 8003700:	01000074 	movhi	r4,1
 8003704:	1907883a 	add	r3,r3,r4
 8003708:	2808d43a 	srli	r4,r5,16
 800370c:	280a943a 	slli	r5,r5,16
 8003710:	54ffffcc 	andi	r19,r10,65535
 8003714:	1907883a 	add	r3,r3,r4
 8003718:	2ccb883a 	add	r5,r5,r19
 800371c:	10c09336 	bltu	r2,r3,800396c <__divdf3+0x6b4>
 8003720:	10c0ad26 	beq	r2,r3,80039d8 <__divdf3+0x720>
 8003724:	10c7c83a 	sub	r3,r2,r3
 8003728:	3167c83a 	sub	r19,r6,r5
 800372c:	34ed803a 	cmpltu	r22,r6,r19
 8003730:	1dadc83a 	sub	r22,r3,r22
 8003734:	b400b226 	beq	r22,r16,8003a00 <__divdf3+0x748>
 8003738:	b009883a 	mov	r4,r22
 800373c:	b80b883a 	mov	r5,r23
 8003740:	d9c00115 	stw	r7,4(sp)
 8003744:	da000215 	stw	r8,8(sp)
 8003748:	8003e780 	call	8003e78 <__udivsi3>
 800374c:	b009883a 	mov	r4,r22
 8003750:	b80b883a 	mov	r5,r23
 8003754:	d8800315 	stw	r2,12(sp)
 8003758:	8003e800 	call	8003e80 <__umodsi3>
 800375c:	d9800317 	ldw	r6,12(sp)
 8003760:	1004943a 	slli	r2,r2,16
 8003764:	9808d43a 	srli	r4,r19,16
 8003768:	372d383a 	mul	r22,r6,fp
 800376c:	d9c00117 	ldw	r7,4(sp)
 8003770:	1106b03a 	or	r3,r2,r4
 8003774:	da000217 	ldw	r8,8(sp)
 8003778:	1d80062e 	bgeu	r3,r22,8003794 <__divdf3+0x4dc>
 800377c:	1c07883a 	add	r3,r3,r16
 8003780:	30bfffc4 	addi	r2,r6,-1
 8003784:	1c00a036 	bltu	r3,r16,8003a08 <__divdf3+0x750>
 8003788:	1d809f2e 	bgeu	r3,r22,8003a08 <__divdf3+0x750>
 800378c:	31bfff84 	addi	r6,r6,-2
 8003790:	1c07883a 	add	r3,r3,r16
 8003794:	1dadc83a 	sub	r22,r3,r22
 8003798:	b009883a 	mov	r4,r22
 800379c:	b80b883a 	mov	r5,r23
 80037a0:	d9800315 	stw	r6,12(sp)
 80037a4:	d9c00115 	stw	r7,4(sp)
 80037a8:	da000215 	stw	r8,8(sp)
 80037ac:	8003e780 	call	8003e78 <__udivsi3>
 80037b0:	b009883a 	mov	r4,r22
 80037b4:	b80b883a 	mov	r5,r23
 80037b8:	d8800015 	stw	r2,0(sp)
 80037bc:	8003e800 	call	8003e80 <__umodsi3>
 80037c0:	da400017 	ldw	r9,0(sp)
 80037c4:	1004943a 	slli	r2,r2,16
 80037c8:	993fffcc 	andi	r4,r19,65535
 80037cc:	4f39383a 	mul	fp,r9,fp
 80037d0:	1106b03a 	or	r3,r2,r4
 80037d4:	d9800317 	ldw	r6,12(sp)
 80037d8:	d9c00117 	ldw	r7,4(sp)
 80037dc:	da000217 	ldw	r8,8(sp)
 80037e0:	1f00062e 	bgeu	r3,fp,80037fc <__divdf3+0x544>
 80037e4:	1c07883a 	add	r3,r3,r16
 80037e8:	48bfffc4 	addi	r2,r9,-1
 80037ec:	1c008836 	bltu	r3,r16,8003a10 <__divdf3+0x758>
 80037f0:	1f00872e 	bgeu	r3,fp,8003a10 <__divdf3+0x758>
 80037f4:	4a7fff84 	addi	r9,r9,-2
 80037f8:	1c07883a 	add	r3,r3,r16
 80037fc:	3008943a 	slli	r4,r6,16
 8003800:	1f07c83a 	sub	r3,r3,fp
 8003804:	4926b03a 	or	r19,r9,r4
 8003808:	993fffcc 	andi	r4,r19,65535
 800380c:	980cd43a 	srli	r6,r19,16
 8003810:	220b383a 	mul	r5,r4,r8
 8003814:	21c5383a 	mul	r2,r4,r7
 8003818:	3211383a 	mul	r8,r6,r8
 800381c:	2808d43a 	srli	r4,r5,16
 8003820:	31cf383a 	mul	r7,r6,r7
 8003824:	4085883a 	add	r2,r8,r2
 8003828:	1105883a 	add	r2,r2,r4
 800382c:	1200022e 	bgeu	r2,r8,8003838 <__divdf3+0x580>
 8003830:	01000074 	movhi	r4,1
 8003834:	390f883a 	add	r7,r7,r4
 8003838:	1008d43a 	srli	r4,r2,16
 800383c:	1004943a 	slli	r2,r2,16
 8003840:	297fffcc 	andi	r5,r5,65535
 8003844:	390f883a 	add	r7,r7,r4
 8003848:	1145883a 	add	r2,r2,r5
 800384c:	19c06536 	bltu	r3,r7,80039e4 <__divdf3+0x72c>
 8003850:	19c09f26 	beq	r3,r7,8003ad0 <__divdf3+0x818>
 8003854:	9cc00054 	ori	r19,r19,1
 8003858:	a100ffc4 	addi	r4,r20,1023
 800385c:	013f500e 	bge	zero,r4,80035a0 <__ram_exceptions_end+0xf7f83360>
 8003860:	988001cc 	andi	r2,r19,7
 8003864:	10000726 	beq	r2,zero,8003884 <__divdf3+0x5cc>
 8003868:	98c003cc 	andi	r3,r19,15
 800386c:	00800104 	movi	r2,4
 8003870:	18800426 	beq	r3,r2,8003884 <__divdf3+0x5cc>
 8003874:	9885883a 	add	r2,r19,r2
 8003878:	14e1803a 	cmpltu	r16,r2,r19
 800387c:	8c23883a 	add	r17,r17,r16
 8003880:	1027883a 	mov	r19,r2
 8003884:	8880402c 	andhi	r2,r17,256
 8003888:	10000426 	beq	r2,zero,800389c <__divdf3+0x5e4>
 800388c:	00bfc034 	movhi	r2,65280
 8003890:	10bfffc4 	addi	r2,r2,-1
 8003894:	a1010004 	addi	r4,r20,1024
 8003898:	88a2703a 	and	r17,r17,r2
 800389c:	0081ff84 	movi	r2,2046
 80038a0:	113edf16 	blt	r2,r4,8003420 <__ram_exceptions_end+0xf7f831e0>
 80038a4:	9826d0fa 	srli	r19,r19,3
 80038a8:	8804977a 	slli	r2,r17,29
 80038ac:	8820927a 	slli	r16,r17,9
 80038b0:	2101ffcc 	andi	r4,r4,2047
 80038b4:	14e6b03a 	or	r19,r2,r19
 80038b8:	800ad33a 	srli	r5,r16,12
 80038bc:	9180004c 	andi	r6,r18,1
 80038c0:	003edb06 	br	8003430 <__ram_exceptions_end+0xf7f831f0>
 80038c4:	008000c4 	movi	r2,3
 80038c8:	4080a826 	beq	r8,r2,8003b6c <__divdf3+0x8b4>
 80038cc:	00800044 	movi	r2,1
 80038d0:	4080551e 	bne	r8,r2,8003a28 <__divdf3+0x770>
 80038d4:	e00d883a 	mov	r6,fp
 80038d8:	0009883a 	mov	r4,zero
 80038dc:	000b883a 	mov	r5,zero
 80038e0:	0027883a 	mov	r19,zero
 80038e4:	003ed206 	br	8003430 <__ram_exceptions_end+0xf7f831f0>
 80038e8:	00800434 	movhi	r2,16
 80038ec:	89400234 	orhi	r5,r17,8
 80038f0:	10bfffc4 	addi	r2,r2,-1
 80038f4:	b00d883a 	mov	r6,r22
 80038f8:	288a703a 	and	r5,r5,r2
 80038fc:	003f2606 	br	8003598 <__ram_exceptions_end+0xf7f83358>
 8003900:	d9800315 	stw	r6,12(sp)
 8003904:	d9c00115 	stw	r7,4(sp)
 8003908:	8003cf80 	call	8003cf8 <__clzsi2>
 800390c:	10c00804 	addi	r3,r2,32
 8003910:	010009c4 	movi	r4,39
 8003914:	d9800317 	ldw	r6,12(sp)
 8003918:	d9c00117 	ldw	r7,4(sp)
 800391c:	20fee30e 	bge	r4,r3,80034ac <__ram_exceptions_end+0xf7f8326c>
 8003920:	117ffe04 	addi	r5,r2,-8
 8003924:	9162983a 	sll	r17,r18,r5
 8003928:	0027883a 	mov	r19,zero
 800392c:	003ee606 	br	80034c8 <__ram_exceptions_end+0xf7f83288>
 8003930:	3009883a 	mov	r4,r6
 8003934:	d9800315 	stw	r6,12(sp)
 8003938:	da000215 	stw	r8,8(sp)
 800393c:	da400015 	stw	r9,0(sp)
 8003940:	8003cf80 	call	8003cf8 <__clzsi2>
 8003944:	10c00804 	addi	r3,r2,32
 8003948:	010009c4 	movi	r4,39
 800394c:	d9800317 	ldw	r6,12(sp)
 8003950:	da000217 	ldw	r8,8(sp)
 8003954:	da400017 	ldw	r9,0(sp)
 8003958:	20fef20e 	bge	r4,r3,8003524 <__ram_exceptions_end+0xf7f832e4>
 800395c:	10bffe04 	addi	r2,r2,-8
 8003960:	a8a0983a 	sll	r16,r21,r2
 8003964:	002b883a 	mov	r21,zero
 8003968:	003ef506 	br	8003540 <__ram_exceptions_end+0xf7f83300>
 800396c:	354d883a 	add	r6,r6,r21
 8003970:	3549803a 	cmpltu	r4,r6,r21
 8003974:	2409883a 	add	r4,r4,r16
 8003978:	2089883a 	add	r4,r4,r2
 800397c:	88bfffc4 	addi	r2,r17,-1
 8003980:	81000c2e 	bgeu	r16,r4,80039b4 <__divdf3+0x6fc>
 8003984:	20c04436 	bltu	r4,r3,8003a98 <__divdf3+0x7e0>
 8003988:	19006f26 	beq	r3,r4,8003b48 <__divdf3+0x890>
 800398c:	20c7c83a 	sub	r3,r4,r3
 8003990:	1023883a 	mov	r17,r2
 8003994:	003f6406 	br	8003728 <__ram_exceptions_end+0xf7f834e8>
 8003998:	9d7f1736 	bltu	r19,r21,80035f8 <__ram_exceptions_end+0xf7f833b8>
 800399c:	9806d07a 	srli	r3,r19,1
 80039a0:	880497fa 	slli	r2,r17,31
 80039a4:	980c97fa 	slli	r6,r19,31
 80039a8:	882cd07a 	srli	r22,r17,1
 80039ac:	18a6b03a 	or	r19,r3,r2
 80039b0:	003f1406 	br	8003604 <__ram_exceptions_end+0xf7f833c4>
 80039b4:	243ff51e 	bne	r4,r16,800398c <__ram_exceptions_end+0xf7f8374c>
 80039b8:	357ff22e 	bgeu	r6,r21,8003984 <__ram_exceptions_end+0xf7f83744>
 80039bc:	80c7c83a 	sub	r3,r16,r3
 80039c0:	1023883a 	mov	r17,r2
 80039c4:	003f5806 	br	8003728 <__ram_exceptions_end+0xf7f834e8>
 80039c8:	1013883a 	mov	r9,r2
 80039cc:	003f3d06 	br	80036c4 <__ram_exceptions_end+0xf7f83484>
 80039d0:	1023883a 	mov	r17,r2
 80039d4:	003f2506 	br	800366c <__ram_exceptions_end+0xf7f8342c>
 80039d8:	317fe436 	bltu	r6,r5,800396c <__ram_exceptions_end+0xf7f8372c>
 80039dc:	0007883a 	mov	r3,zero
 80039e0:	003f5106 	br	8003728 <__ram_exceptions_end+0xf7f834e8>
 80039e4:	1c07883a 	add	r3,r3,r16
 80039e8:	993fffc4 	addi	r4,r19,-1
 80039ec:	1c000a2e 	bgeu	r3,r16,8003a18 <__divdf3+0x760>
 80039f0:	2027883a 	mov	r19,r4
 80039f4:	19ff971e 	bne	r3,r7,8003854 <__ram_exceptions_end+0xf7f83614>
 80039f8:	a8bf961e 	bne	r21,r2,8003854 <__ram_exceptions_end+0xf7f83614>
 80039fc:	003f9606 	br	8003858 <__ram_exceptions_end+0xf7f83618>
 8003a00:	04ffffc4 	movi	r19,-1
 8003a04:	003f9406 	br	8003858 <__ram_exceptions_end+0xf7f83618>
 8003a08:	100d883a 	mov	r6,r2
 8003a0c:	003f6106 	br	8003794 <__ram_exceptions_end+0xf7f83554>
 8003a10:	1013883a 	mov	r9,r2
 8003a14:	003f7906 	br	80037fc <__ram_exceptions_end+0xf7f835bc>
 8003a18:	19c02636 	bltu	r3,r7,8003ab4 <__divdf3+0x7fc>
 8003a1c:	38c04d26 	beq	r7,r3,8003b54 <__divdf3+0x89c>
 8003a20:	2027883a 	mov	r19,r4
 8003a24:	003f8b06 	br	8003854 <__ram_exceptions_end+0xf7f83614>
 8003a28:	e025883a 	mov	r18,fp
 8003a2c:	003f8a06 	br	8003858 <__ram_exceptions_end+0xf7f83618>
 8003a30:	008007c4 	movi	r2,31
 8003a34:	14002a16 	blt	r2,r16,8003ae0 <__divdf3+0x828>
 8003a38:	a5010784 	addi	r20,r20,1054
 8003a3c:	8d04983a 	sll	r2,r17,r20
 8003a40:	9c06d83a 	srl	r3,r19,r16
 8003a44:	9d28983a 	sll	r20,r19,r20
 8003a48:	8c20d83a 	srl	r16,r17,r16
 8003a4c:	1886b03a 	or	r3,r3,r2
 8003a50:	a004c03a 	cmpne	r2,r20,zero
 8003a54:	1884b03a 	or	r2,r3,r2
 8003a58:	10c001cc 	andi	r3,r2,7
 8003a5c:	18000726 	beq	r3,zero,8003a7c <__divdf3+0x7c4>
 8003a60:	110003cc 	andi	r4,r2,15
 8003a64:	00c00104 	movi	r3,4
 8003a68:	20c00426 	beq	r4,r3,8003a7c <__divdf3+0x7c4>
 8003a6c:	10c00104 	addi	r3,r2,4
 8003a70:	1885803a 	cmpltu	r2,r3,r2
 8003a74:	80a1883a 	add	r16,r16,r2
 8003a78:	1805883a 	mov	r2,r3
 8003a7c:	80c0202c 	andhi	r3,r16,128
 8003a80:	18002d26 	beq	r3,zero,8003b38 <__divdf3+0x880>
 8003a84:	9180004c 	andi	r6,r18,1
 8003a88:	01000044 	movi	r4,1
 8003a8c:	000b883a 	mov	r5,zero
 8003a90:	0027883a 	mov	r19,zero
 8003a94:	003e6606 	br	8003430 <__ram_exceptions_end+0xf7f831f0>
 8003a98:	354d883a 	add	r6,r6,r21
 8003a9c:	356d803a 	cmpltu	r22,r6,r21
 8003aa0:	b42d883a 	add	r22,r22,r16
 8003aa4:	b12d883a 	add	r22,r22,r4
 8003aa8:	8c7fff84 	addi	r17,r17,-2
 8003aac:	b0c7c83a 	sub	r3,r22,r3
 8003ab0:	003f1d06 	br	8003728 <__ram_exceptions_end+0xf7f834e8>
 8003ab4:	ad4b883a 	add	r5,r21,r21
 8003ab8:	2d6b803a 	cmpltu	r21,r5,r21
 8003abc:	ac2b883a 	add	r21,r21,r16
 8003ac0:	1d47883a 	add	r3,r3,r21
 8003ac4:	993fff84 	addi	r4,r19,-2
 8003ac8:	282b883a 	mov	r21,r5
 8003acc:	003fc806 	br	80039f0 <__ram_exceptions_end+0xf7f837b0>
 8003ad0:	103fc41e 	bne	r2,zero,80039e4 <__ram_exceptions_end+0xf7f837a4>
 8003ad4:	002b883a 	mov	r21,zero
 8003ad8:	a8bf5e1e 	bne	r21,r2,8003854 <__ram_exceptions_end+0xf7f83614>
 8003adc:	003f5e06 	br	8003858 <__ram_exceptions_end+0xf7f83618>
 8003ae0:	00bef884 	movi	r2,-1054
 8003ae4:	1505c83a 	sub	r2,r2,r20
 8003ae8:	00c00804 	movi	r3,32
 8003aec:	8884d83a 	srl	r2,r17,r2
 8003af0:	80c01c26 	beq	r16,r3,8003b64 <__divdf3+0x8ac>
 8003af4:	a0c10f84 	addi	r3,r20,1086
 8003af8:	88c6983a 	sll	r3,r17,r3
 8003afc:	1cc6b03a 	or	r3,r3,r19
 8003b00:	1806c03a 	cmpne	r3,r3,zero
 8003b04:	1884b03a 	or	r2,r3,r2
 8003b08:	140001cc 	andi	r16,r2,7
 8003b0c:	8000061e 	bne	r16,zero,8003b28 <__divdf3+0x870>
 8003b10:	000b883a 	mov	r5,zero
 8003b14:	1004d0fa 	srli	r2,r2,3
 8003b18:	9180004c 	andi	r6,r18,1
 8003b1c:	0009883a 	mov	r4,zero
 8003b20:	1426b03a 	or	r19,r2,r16
 8003b24:	003e4206 	br	8003430 <__ram_exceptions_end+0xf7f831f0>
 8003b28:	110003cc 	andi	r4,r2,15
 8003b2c:	00c00104 	movi	r3,4
 8003b30:	0021883a 	mov	r16,zero
 8003b34:	20ffcd1e 	bne	r4,r3,8003a6c <__ram_exceptions_end+0xf7f8382c>
 8003b38:	800a927a 	slli	r5,r16,9
 8003b3c:	8020977a 	slli	r16,r16,29
 8003b40:	280ad33a 	srli	r5,r5,12
 8003b44:	003ff306 	br	8003b14 <__ram_exceptions_end+0xf7f838d4>
 8003b48:	317fd336 	bltu	r6,r5,8003a98 <__ram_exceptions_end+0xf7f83858>
 8003b4c:	1023883a 	mov	r17,r2
 8003b50:	003fa206 	br	80039dc <__ram_exceptions_end+0xf7f8379c>
 8003b54:	a8bfd736 	bltu	r21,r2,8003ab4 <__ram_exceptions_end+0xf7f83874>
 8003b58:	2027883a 	mov	r19,r4
 8003b5c:	a8bf3d1e 	bne	r21,r2,8003854 <__ram_exceptions_end+0xf7f83614>
 8003b60:	003f3d06 	br	8003858 <__ram_exceptions_end+0xf7f83618>
 8003b64:	0007883a 	mov	r3,zero
 8003b68:	003fe406 	br	8003afc <__ram_exceptions_end+0xf7f838bc>
 8003b6c:	00800434 	movhi	r2,16
 8003b70:	89400234 	orhi	r5,r17,8
 8003b74:	10bfffc4 	addi	r2,r2,-1
 8003b78:	e00d883a 	mov	r6,fp
 8003b7c:	288a703a 	and	r5,r5,r2
 8003b80:	003e8506 	br	8003598 <__ram_exceptions_end+0xf7f83358>

08003b84 <__floatsidf>:
 8003b84:	defffd04 	addi	sp,sp,-12
 8003b88:	dc400115 	stw	r17,4(sp)
 8003b8c:	dfc00215 	stw	ra,8(sp)
 8003b90:	dc000015 	stw	r16,0(sp)
 8003b94:	2023883a 	mov	r17,r4
 8003b98:	20001426 	beq	r4,zero,8003bec <__floatsidf+0x68>
 8003b9c:	2020d7fa 	srli	r16,r4,31
 8003ba0:	80000126 	beq	r16,zero,8003ba8 <__floatsidf+0x24>
 8003ba4:	0123c83a 	sub	r17,zero,r4
 8003ba8:	8809883a 	mov	r4,r17
 8003bac:	8003cf80 	call	8003cf8 <__clzsi2>
 8003bb0:	01410784 	movi	r5,1054
 8003bb4:	00c00284 	movi	r3,10
 8003bb8:	288bc83a 	sub	r5,r5,r2
 8003bbc:	18801c16 	blt	r3,r2,8003c30 <__floatsidf+0xac>
 8003bc0:	00c002c4 	movi	r3,11
 8003bc4:	1887c83a 	sub	r3,r3,r2
 8003bc8:	88c8d83a 	srl	r4,r17,r3
 8003bcc:	00c00434 	movhi	r3,16
 8003bd0:	18ffffc4 	addi	r3,r3,-1
 8003bd4:	10800544 	addi	r2,r2,21
 8003bd8:	20c8703a 	and	r4,r4,r3
 8003bdc:	8884983a 	sll	r2,r17,r2
 8003be0:	28c1ffcc 	andi	r3,r5,2047
 8003be4:	800d883a 	mov	r6,r16
 8003be8:	00000406 	br	8003bfc <__floatsidf+0x78>
 8003bec:	000d883a 	mov	r6,zero
 8003bf0:	0007883a 	mov	r3,zero
 8003bf4:	0009883a 	mov	r4,zero
 8003bf8:	0005883a 	mov	r2,zero
 8003bfc:	180a953a 	slli	r5,r3,20
 8003c00:	31803fcc 	andi	r6,r6,255
 8003c04:	00c00434 	movhi	r3,16
 8003c08:	300c97fa 	slli	r6,r6,31
 8003c0c:	18ffffc4 	addi	r3,r3,-1
 8003c10:	20c6703a 	and	r3,r4,r3
 8003c14:	1946b03a 	or	r3,r3,r5
 8003c18:	1986b03a 	or	r3,r3,r6
 8003c1c:	dfc00217 	ldw	ra,8(sp)
 8003c20:	dc400117 	ldw	r17,4(sp)
 8003c24:	dc000017 	ldw	r16,0(sp)
 8003c28:	dec00304 	addi	sp,sp,12
 8003c2c:	f800283a 	ret
 8003c30:	10fffd44 	addi	r3,r2,-11
 8003c34:	88c8983a 	sll	r4,r17,r3
 8003c38:	00800434 	movhi	r2,16
 8003c3c:	10bfffc4 	addi	r2,r2,-1
 8003c40:	2088703a 	and	r4,r4,r2
 8003c44:	28c1ffcc 	andi	r3,r5,2047
 8003c48:	800d883a 	mov	r6,r16
 8003c4c:	0005883a 	mov	r2,zero
 8003c50:	003fea06 	br	8003bfc <__ram_exceptions_end+0xf7f839bc>

08003c54 <__floatunsidf>:
 8003c54:	defffe04 	addi	sp,sp,-8
 8003c58:	dc000015 	stw	r16,0(sp)
 8003c5c:	dfc00115 	stw	ra,4(sp)
 8003c60:	2021883a 	mov	r16,r4
 8003c64:	20001026 	beq	r4,zero,8003ca8 <__floatunsidf+0x54>
 8003c68:	8003cf80 	call	8003cf8 <__clzsi2>
 8003c6c:	01410784 	movi	r5,1054
 8003c70:	100d883a 	mov	r6,r2
 8003c74:	288bc83a 	sub	r5,r5,r2
 8003c78:	00800284 	movi	r2,10
 8003c7c:	11801616 	blt	r2,r6,8003cd8 <__floatunsidf+0x84>
 8003c80:	008002c4 	movi	r2,11
 8003c84:	1185c83a 	sub	r2,r2,r6
 8003c88:	8084d83a 	srl	r2,r16,r2
 8003c8c:	00c00434 	movhi	r3,16
 8003c90:	31c00544 	addi	r7,r6,21
 8003c94:	18ffffc4 	addi	r3,r3,-1
 8003c98:	81e0983a 	sll	r16,r16,r7
 8003c9c:	10cc703a 	and	r6,r2,r3
 8003ca0:	2941ffcc 	andi	r5,r5,2047
 8003ca4:	00000206 	br	8003cb0 <__floatunsidf+0x5c>
 8003ca8:	000b883a 	mov	r5,zero
 8003cac:	000d883a 	mov	r6,zero
 8003cb0:	280a953a 	slli	r5,r5,20
 8003cb4:	00c00434 	movhi	r3,16
 8003cb8:	18ffffc4 	addi	r3,r3,-1
 8003cbc:	30c6703a 	and	r3,r6,r3
 8003cc0:	8005883a 	mov	r2,r16
 8003cc4:	1946b03a 	or	r3,r3,r5
 8003cc8:	dfc00117 	ldw	ra,4(sp)
 8003ccc:	dc000017 	ldw	r16,0(sp)
 8003cd0:	dec00204 	addi	sp,sp,8
 8003cd4:	f800283a 	ret
 8003cd8:	31bffd44 	addi	r6,r6,-11
 8003cdc:	818c983a 	sll	r6,r16,r6
 8003ce0:	00800434 	movhi	r2,16
 8003ce4:	10bfffc4 	addi	r2,r2,-1
 8003ce8:	2941ffcc 	andi	r5,r5,2047
 8003cec:	0021883a 	mov	r16,zero
 8003cf0:	308c703a 	and	r6,r6,r2
 8003cf4:	003fee06 	br	8003cb0 <__ram_exceptions_end+0xf7f83a70>

08003cf8 <__clzsi2>:
 8003cf8:	00bfffd4 	movui	r2,65535
 8003cfc:	11000b36 	bltu	r2,r4,8003d2c <__clzsi2+0x34>
 8003d00:	00803fc4 	movi	r2,255
 8003d04:	1100122e 	bgeu	r2,r4,8003d50 <__clzsi2+0x58>
 8003d08:	00c00204 	movi	r3,8
 8003d0c:	01400604 	movi	r5,24
 8003d10:	20c8d83a 	srl	r4,r4,r3
 8003d14:	00820074 	movhi	r2,2049
 8003d18:	1089d204 	addi	r2,r2,10056
 8003d1c:	1109883a 	add	r4,r2,r4
 8003d20:	20800003 	ldbu	r2,0(r4)
 8003d24:	2885c83a 	sub	r2,r5,r2
 8003d28:	f800283a 	ret
 8003d2c:	00804034 	movhi	r2,256
 8003d30:	10bfffc4 	addi	r2,r2,-1
 8003d34:	11000336 	bltu	r2,r4,8003d44 <__clzsi2+0x4c>
 8003d38:	00c00404 	movi	r3,16
 8003d3c:	180b883a 	mov	r5,r3
 8003d40:	003ff306 	br	8003d10 <__ram_exceptions_end+0xf7f83ad0>
 8003d44:	00c00604 	movi	r3,24
 8003d48:	01400204 	movi	r5,8
 8003d4c:	003ff006 	br	8003d10 <__ram_exceptions_end+0xf7f83ad0>
 8003d50:	0007883a 	mov	r3,zero
 8003d54:	01400804 	movi	r5,32
 8003d58:	003fed06 	br	8003d10 <__ram_exceptions_end+0xf7f83ad0>

08003d5c <udivmodsi4>:
 8003d5c:	2900182e 	bgeu	r5,r4,8003dc0 <udivmodsi4+0x64>
 8003d60:	28001716 	blt	r5,zero,8003dc0 <udivmodsi4+0x64>
 8003d64:	00800804 	movi	r2,32
 8003d68:	00c00044 	movi	r3,1
 8003d6c:	00000206 	br	8003d78 <udivmodsi4+0x1c>
 8003d70:	10001126 	beq	r2,zero,8003db8 <udivmodsi4+0x5c>
 8003d74:	28000516 	blt	r5,zero,8003d8c <udivmodsi4+0x30>
 8003d78:	294b883a 	add	r5,r5,r5
 8003d7c:	10bfffc4 	addi	r2,r2,-1
 8003d80:	18c7883a 	add	r3,r3,r3
 8003d84:	293ffa36 	bltu	r5,r4,8003d70 <__ram_exceptions_end+0xf7f83b30>
 8003d88:	18000b26 	beq	r3,zero,8003db8 <udivmodsi4+0x5c>
 8003d8c:	0005883a 	mov	r2,zero
 8003d90:	21400236 	bltu	r4,r5,8003d9c <udivmodsi4+0x40>
 8003d94:	2149c83a 	sub	r4,r4,r5
 8003d98:	10c4b03a 	or	r2,r2,r3
 8003d9c:	1806d07a 	srli	r3,r3,1
 8003da0:	280ad07a 	srli	r5,r5,1
 8003da4:	183ffa1e 	bne	r3,zero,8003d90 <__ram_exceptions_end+0xf7f83b50>
 8003da8:	3000011e 	bne	r6,zero,8003db0 <udivmodsi4+0x54>
 8003dac:	f800283a 	ret
 8003db0:	2005883a 	mov	r2,r4
 8003db4:	f800283a 	ret
 8003db8:	0005883a 	mov	r2,zero
 8003dbc:	003ffa06 	br	8003da8 <__ram_exceptions_end+0xf7f83b68>
 8003dc0:	00c00044 	movi	r3,1
 8003dc4:	003ff106 	br	8003d8c <__ram_exceptions_end+0xf7f83b4c>

08003dc8 <__divsi3>:
 8003dc8:	defffe04 	addi	sp,sp,-8
 8003dcc:	dfc00115 	stw	ra,4(sp)
 8003dd0:	dc000015 	stw	r16,0(sp)
 8003dd4:	20000b16 	blt	r4,zero,8003e04 <__divsi3+0x3c>
 8003dd8:	0021883a 	mov	r16,zero
 8003ddc:	28000c16 	blt	r5,zero,8003e10 <__divsi3+0x48>
 8003de0:	000d883a 	mov	r6,zero
 8003de4:	8003d5c0 	call	8003d5c <udivmodsi4>
 8003de8:	0407c83a 	sub	r3,zero,r16
 8003dec:	1884f03a 	xor	r2,r3,r2
 8003df0:	1405883a 	add	r2,r2,r16
 8003df4:	dfc00117 	ldw	ra,4(sp)
 8003df8:	dc000017 	ldw	r16,0(sp)
 8003dfc:	dec00204 	addi	sp,sp,8
 8003e00:	f800283a 	ret
 8003e04:	0109c83a 	sub	r4,zero,r4
 8003e08:	04000044 	movi	r16,1
 8003e0c:	283ff40e 	bge	r5,zero,8003de0 <__ram_exceptions_end+0xf7f83ba0>
 8003e10:	014bc83a 	sub	r5,zero,r5
 8003e14:	8400005c 	xori	r16,r16,1
 8003e18:	003ff106 	br	8003de0 <__ram_exceptions_end+0xf7f83ba0>

08003e1c <__modsi3>:
 8003e1c:	defffd04 	addi	sp,sp,-12
 8003e20:	dfc00215 	stw	ra,8(sp)
 8003e24:	dc400115 	stw	r17,4(sp)
 8003e28:	dc000015 	stw	r16,0(sp)
 8003e2c:	20000c16 	blt	r4,zero,8003e60 <__modsi3+0x44>
 8003e30:	0023883a 	mov	r17,zero
 8003e34:	0021883a 	mov	r16,zero
 8003e38:	28000d16 	blt	r5,zero,8003e70 <__modsi3+0x54>
 8003e3c:	01800044 	movi	r6,1
 8003e40:	8003d5c0 	call	8003d5c <udivmodsi4>
 8003e44:	1404f03a 	xor	r2,r2,r16
 8003e48:	8885883a 	add	r2,r17,r2
 8003e4c:	dfc00217 	ldw	ra,8(sp)
 8003e50:	dc400117 	ldw	r17,4(sp)
 8003e54:	dc000017 	ldw	r16,0(sp)
 8003e58:	dec00304 	addi	sp,sp,12
 8003e5c:	f800283a 	ret
 8003e60:	0109c83a 	sub	r4,zero,r4
 8003e64:	04400044 	movi	r17,1
 8003e68:	043fffc4 	movi	r16,-1
 8003e6c:	283ff30e 	bge	r5,zero,8003e3c <__ram_exceptions_end+0xf7f83bfc>
 8003e70:	014bc83a 	sub	r5,zero,r5
 8003e74:	003ff106 	br	8003e3c <__ram_exceptions_end+0xf7f83bfc>

08003e78 <__udivsi3>:
 8003e78:	000d883a 	mov	r6,zero
 8003e7c:	8003d5c1 	jmpi	8003d5c <udivmodsi4>

08003e80 <__umodsi3>:
 8003e80:	01800044 	movi	r6,1
 8003e84:	8003d5c1 	jmpi	8003d5c <udivmodsi4>

08003e88 <memset>:
 8003e88:	20c000cc 	andi	r3,r4,3
 8003e8c:	2005883a 	mov	r2,r4
 8003e90:	18004326 	beq	r3,zero,8003fa0 <memset+0x118>
 8003e94:	31ffffc4 	addi	r7,r6,-1
 8003e98:	30004026 	beq	r6,zero,8003f9c <memset+0x114>
 8003e9c:	2813883a 	mov	r9,r5
 8003ea0:	200d883a 	mov	r6,r4
 8003ea4:	2007883a 	mov	r3,r4
 8003ea8:	00000406 	br	8003ebc <memset+0x34>
 8003eac:	3a3fffc4 	addi	r8,r7,-1
 8003eb0:	31800044 	addi	r6,r6,1
 8003eb4:	38003926 	beq	r7,zero,8003f9c <memset+0x114>
 8003eb8:	400f883a 	mov	r7,r8
 8003ebc:	18c00044 	addi	r3,r3,1
 8003ec0:	32400005 	stb	r9,0(r6)
 8003ec4:	1a0000cc 	andi	r8,r3,3
 8003ec8:	403ff81e 	bne	r8,zero,8003eac <__ram_exceptions_end+0xf7f83c6c>
 8003ecc:	010000c4 	movi	r4,3
 8003ed0:	21c02d2e 	bgeu	r4,r7,8003f88 <memset+0x100>
 8003ed4:	29803fcc 	andi	r6,r5,255
 8003ed8:	3008923a 	slli	r4,r6,8
 8003edc:	218cb03a 	or	r6,r4,r6
 8003ee0:	3008943a 	slli	r4,r6,16
 8003ee4:	218cb03a 	or	r6,r4,r6
 8003ee8:	010003c4 	movi	r4,15
 8003eec:	21c0182e 	bgeu	r4,r7,8003f50 <memset+0xc8>
 8003ef0:	3b3ffc04 	addi	r12,r7,-16
 8003ef4:	6018d13a 	srli	r12,r12,4
 8003ef8:	1a000104 	addi	r8,r3,4
 8003efc:	1ac00204 	addi	r11,r3,8
 8003f00:	6008913a 	slli	r4,r12,4
 8003f04:	1a800304 	addi	r10,r3,12
 8003f08:	1813883a 	mov	r9,r3
 8003f0c:	21000504 	addi	r4,r4,20
 8003f10:	1909883a 	add	r4,r3,r4
 8003f14:	49800015 	stw	r6,0(r9)
 8003f18:	41800015 	stw	r6,0(r8)
 8003f1c:	59800015 	stw	r6,0(r11)
 8003f20:	51800015 	stw	r6,0(r10)
 8003f24:	42000404 	addi	r8,r8,16
 8003f28:	4a400404 	addi	r9,r9,16
 8003f2c:	5ac00404 	addi	r11,r11,16
 8003f30:	52800404 	addi	r10,r10,16
 8003f34:	413ff71e 	bne	r8,r4,8003f14 <__ram_exceptions_end+0xf7f83cd4>
 8003f38:	63000044 	addi	r12,r12,1
 8003f3c:	6018913a 	slli	r12,r12,4
 8003f40:	39c003cc 	andi	r7,r7,15
 8003f44:	010000c4 	movi	r4,3
 8003f48:	1b07883a 	add	r3,r3,r12
 8003f4c:	21c00e2e 	bgeu	r4,r7,8003f88 <memset+0x100>
 8003f50:	1813883a 	mov	r9,r3
 8003f54:	3811883a 	mov	r8,r7
 8003f58:	010000c4 	movi	r4,3
 8003f5c:	49800015 	stw	r6,0(r9)
 8003f60:	423fff04 	addi	r8,r8,-4
 8003f64:	4a400104 	addi	r9,r9,4
 8003f68:	223ffc36 	bltu	r4,r8,8003f5c <__ram_exceptions_end+0xf7f83d1c>
 8003f6c:	393fff04 	addi	r4,r7,-4
 8003f70:	2008d0ba 	srli	r4,r4,2
 8003f74:	39c000cc 	andi	r7,r7,3
 8003f78:	21000044 	addi	r4,r4,1
 8003f7c:	2109883a 	add	r4,r4,r4
 8003f80:	2109883a 	add	r4,r4,r4
 8003f84:	1907883a 	add	r3,r3,r4
 8003f88:	38000426 	beq	r7,zero,8003f9c <memset+0x114>
 8003f8c:	19cf883a 	add	r7,r3,r7
 8003f90:	19400005 	stb	r5,0(r3)
 8003f94:	18c00044 	addi	r3,r3,1
 8003f98:	19fffd1e 	bne	r3,r7,8003f90 <__ram_exceptions_end+0xf7f83d50>
 8003f9c:	f800283a 	ret
 8003fa0:	2007883a 	mov	r3,r4
 8003fa4:	300f883a 	mov	r7,r6
 8003fa8:	003fc806 	br	8003ecc <__ram_exceptions_end+0xf7f83c8c>

08003fac <_printf_r>:
 8003fac:	defffd04 	addi	sp,sp,-12
 8003fb0:	dfc00015 	stw	ra,0(sp)
 8003fb4:	d9800115 	stw	r6,4(sp)
 8003fb8:	d9c00215 	stw	r7,8(sp)
 8003fbc:	280d883a 	mov	r6,r5
 8003fc0:	21400217 	ldw	r5,8(r4)
 8003fc4:	d9c00104 	addi	r7,sp,4
 8003fc8:	80041980 	call	8004198 <___vfprintf_internal_r>
 8003fcc:	dfc00017 	ldw	ra,0(sp)
 8003fd0:	dec00304 	addi	sp,sp,12
 8003fd4:	f800283a 	ret

08003fd8 <printf>:
 8003fd8:	defffc04 	addi	sp,sp,-16
 8003fdc:	dfc00015 	stw	ra,0(sp)
 8003fe0:	d9400115 	stw	r5,4(sp)
 8003fe4:	d9800215 	stw	r6,8(sp)
 8003fe8:	d9c00315 	stw	r7,12(sp)
 8003fec:	00820074 	movhi	r2,2049
 8003ff0:	10914804 	addi	r2,r2,17696
 8003ff4:	10800017 	ldw	r2,0(r2)
 8003ff8:	200b883a 	mov	r5,r4
 8003ffc:	d9800104 	addi	r6,sp,4
 8004000:	11000217 	ldw	r4,8(r2)
 8004004:	80061940 	call	8006194 <__vfprintf_internal>
 8004008:	dfc00017 	ldw	ra,0(sp)
 800400c:	dec00404 	addi	sp,sp,16
 8004010:	f800283a 	ret

08004014 <_putchar_r>:
 8004014:	21800217 	ldw	r6,8(r4)
 8004018:	800a9781 	jmpi	800a978 <_putc_r>

0800401c <putchar>:
 800401c:	00820074 	movhi	r2,2049
 8004020:	10914804 	addi	r2,r2,17696
 8004024:	200b883a 	mov	r5,r4
 8004028:	11000017 	ldw	r4,0(r2)
 800402c:	21800217 	ldw	r6,8(r4)
 8004030:	800a9781 	jmpi	800a978 <_putc_r>

08004034 <_puts_r>:
 8004034:	defff604 	addi	sp,sp,-40
 8004038:	dc000715 	stw	r16,28(sp)
 800403c:	2021883a 	mov	r16,r4
 8004040:	2809883a 	mov	r4,r5
 8004044:	dc400815 	stw	r17,32(sp)
 8004048:	dfc00915 	stw	ra,36(sp)
 800404c:	2823883a 	mov	r17,r5
 8004050:	80041000 	call	8004100 <strlen>
 8004054:	00c20074 	movhi	r3,2049
 8004058:	18d14804 	addi	r3,r3,17696
 800405c:	18c00017 	ldw	r3,0(r3)
 8004060:	11000044 	addi	r4,r2,1
 8004064:	d8800115 	stw	r2,4(sp)
 8004068:	18c00217 	ldw	r3,8(r3)
 800406c:	01420074 	movhi	r5,2049
 8004070:	294a1204 	addi	r5,r5,10312
 8004074:	1880030b 	ldhu	r2,12(r3)
 8004078:	d9400215 	stw	r5,8(sp)
 800407c:	d9000615 	stw	r4,24(sp)
 8004080:	01400044 	movi	r5,1
 8004084:	01000084 	movi	r4,2
 8004088:	d9000515 	stw	r4,20(sp)
 800408c:	dc400015 	stw	r17,0(sp)
 8004090:	d9400315 	stw	r5,12(sp)
 8004094:	dec00415 	stw	sp,16(sp)
 8004098:	1108000c 	andi	r4,r2,8192
 800409c:	2000061e 	bne	r4,zero,80040b8 <_puts_r+0x84>
 80040a0:	19401917 	ldw	r5,100(r3)
 80040a4:	0137ffc4 	movi	r4,-8193
 80040a8:	10880014 	ori	r2,r2,8192
 80040ac:	2908703a 	and	r4,r5,r4
 80040b0:	1880030d 	sth	r2,12(r3)
 80040b4:	19001915 	stw	r4,100(r3)
 80040b8:	81400217 	ldw	r5,8(r16)
 80040bc:	8009883a 	mov	r4,r16
 80040c0:	d9800404 	addi	r6,sp,16
 80040c4:	800861c0 	call	800861c <__sfvwrite_r>
 80040c8:	1000061e 	bne	r2,zero,80040e4 <_puts_r+0xb0>
 80040cc:	00800284 	movi	r2,10
 80040d0:	dfc00917 	ldw	ra,36(sp)
 80040d4:	dc400817 	ldw	r17,32(sp)
 80040d8:	dc000717 	ldw	r16,28(sp)
 80040dc:	dec00a04 	addi	sp,sp,40
 80040e0:	f800283a 	ret
 80040e4:	00bfffc4 	movi	r2,-1
 80040e8:	003ff906 	br	80040d0 <__ram_exceptions_end+0xf7f83e90>

080040ec <puts>:
 80040ec:	00820074 	movhi	r2,2049
 80040f0:	10914804 	addi	r2,r2,17696
 80040f4:	200b883a 	mov	r5,r4
 80040f8:	11000017 	ldw	r4,0(r2)
 80040fc:	80040341 	jmpi	8004034 <_puts_r>

08004100 <strlen>:
 8004100:	208000cc 	andi	r2,r4,3
 8004104:	10002026 	beq	r2,zero,8004188 <strlen+0x88>
 8004108:	20800007 	ldb	r2,0(r4)
 800410c:	10002026 	beq	r2,zero,8004190 <strlen+0x90>
 8004110:	2005883a 	mov	r2,r4
 8004114:	00000206 	br	8004120 <strlen+0x20>
 8004118:	10c00007 	ldb	r3,0(r2)
 800411c:	18001826 	beq	r3,zero,8004180 <strlen+0x80>
 8004120:	10800044 	addi	r2,r2,1
 8004124:	10c000cc 	andi	r3,r2,3
 8004128:	183ffb1e 	bne	r3,zero,8004118 <__ram_exceptions_end+0xf7f83ed8>
 800412c:	10c00017 	ldw	r3,0(r2)
 8004130:	01ffbff4 	movhi	r7,65279
 8004134:	39ffbfc4 	addi	r7,r7,-257
 8004138:	00ca303a 	nor	r5,zero,r3
 800413c:	01a02074 	movhi	r6,32897
 8004140:	19c7883a 	add	r3,r3,r7
 8004144:	31a02004 	addi	r6,r6,-32640
 8004148:	1946703a 	and	r3,r3,r5
 800414c:	1986703a 	and	r3,r3,r6
 8004150:	1800091e 	bne	r3,zero,8004178 <strlen+0x78>
 8004154:	10800104 	addi	r2,r2,4
 8004158:	10c00017 	ldw	r3,0(r2)
 800415c:	19cb883a 	add	r5,r3,r7
 8004160:	00c6303a 	nor	r3,zero,r3
 8004164:	28c6703a 	and	r3,r5,r3
 8004168:	1986703a 	and	r3,r3,r6
 800416c:	183ff926 	beq	r3,zero,8004154 <__ram_exceptions_end+0xf7f83f14>
 8004170:	00000106 	br	8004178 <strlen+0x78>
 8004174:	10800044 	addi	r2,r2,1
 8004178:	10c00007 	ldb	r3,0(r2)
 800417c:	183ffd1e 	bne	r3,zero,8004174 <__ram_exceptions_end+0xf7f83f34>
 8004180:	1105c83a 	sub	r2,r2,r4
 8004184:	f800283a 	ret
 8004188:	2005883a 	mov	r2,r4
 800418c:	003fe706 	br	800412c <__ram_exceptions_end+0xf7f83eec>
 8004190:	0005883a 	mov	r2,zero
 8004194:	f800283a 	ret

08004198 <___vfprintf_internal_r>:
 8004198:	defeb604 	addi	sp,sp,-1320
 800419c:	dfc14915 	stw	ra,1316(sp)
 80041a0:	ddc14715 	stw	r23,1308(sp)
 80041a4:	dd814615 	stw	r22,1304(sp)
 80041a8:	282f883a 	mov	r23,r5
 80041ac:	202d883a 	mov	r22,r4
 80041b0:	d9812a15 	stw	r6,1192(sp)
 80041b4:	d9c12d15 	stw	r7,1204(sp)
 80041b8:	df014815 	stw	fp,1312(sp)
 80041bc:	dd414515 	stw	r21,1300(sp)
 80041c0:	dd014415 	stw	r20,1296(sp)
 80041c4:	dcc14315 	stw	r19,1292(sp)
 80041c8:	dc814215 	stw	r18,1288(sp)
 80041cc:	dc414115 	stw	r17,1284(sp)
 80041d0:	dc014015 	stw	r16,1280(sp)
 80041d4:	8008cdc0 	call	8008cdc <_localeconv_r>
 80041d8:	10800017 	ldw	r2,0(r2)
 80041dc:	1009883a 	mov	r4,r2
 80041e0:	d8813515 	stw	r2,1236(sp)
 80041e4:	80041000 	call	8004100 <strlen>
 80041e8:	d8813815 	stw	r2,1248(sp)
 80041ec:	b0000226 	beq	r22,zero,80041f8 <___vfprintf_internal_r+0x60>
 80041f0:	b0800e17 	ldw	r2,56(r22)
 80041f4:	10010426 	beq	r2,zero,8004608 <___vfprintf_internal_r+0x470>
 80041f8:	b8c0030b 	ldhu	r3,12(r23)
 80041fc:	1908000c 	andi	r4,r3,8192
 8004200:	1805883a 	mov	r2,r3
 8004204:	2000071e 	bne	r4,zero,8004224 <___vfprintf_internal_r+0x8c>
 8004208:	b9001917 	ldw	r4,100(r23)
 800420c:	18880014 	ori	r2,r3,8192
 8004210:	00f7ffc4 	movi	r3,-8193
 8004214:	20c8703a 	and	r4,r4,r3
 8004218:	b880030d 	sth	r2,12(r23)
 800421c:	1007883a 	mov	r3,r2
 8004220:	b9001915 	stw	r4,100(r23)
 8004224:	1100020c 	andi	r4,r2,8
 8004228:	2000a726 	beq	r4,zero,80044c8 <___vfprintf_internal_r+0x330>
 800422c:	b9000417 	ldw	r4,16(r23)
 8004230:	2000a526 	beq	r4,zero,80044c8 <___vfprintf_internal_r+0x330>
 8004234:	1080068c 	andi	r2,r2,26
 8004238:	01000284 	movi	r4,10
 800423c:	1100ab26 	beq	r2,r4,80044ec <___vfprintf_internal_r+0x354>
 8004240:	dac10e04 	addi	r11,sp,1080
 8004244:	db010dc4 	addi	r12,sp,1079
 8004248:	d8800404 	addi	r2,sp,16
 800424c:	05020074 	movhi	r20,2049
 8004250:	dac12815 	stw	r11,1184(sp)
 8004254:	5b17c83a 	sub	r11,r11,r12
 8004258:	a50a2384 	addi	r20,r20,10382
 800425c:	db012915 	stw	r12,1188(sp)
 8004260:	d8811e15 	stw	r2,1144(sp)
 8004264:	d8012015 	stw	zero,1152(sp)
 8004268:	d8011f15 	stw	zero,1148(sp)
 800426c:	d8013315 	stw	zero,1228(sp)
 8004270:	d8013715 	stw	zero,1244(sp)
 8004274:	d8013915 	stw	zero,1252(sp)
 8004278:	d8013b15 	stw	zero,1260(sp)
 800427c:	d8013a15 	stw	zero,1256(sp)
 8004280:	d8012f15 	stw	zero,1212(sp)
 8004284:	1011883a 	mov	r8,r2
 8004288:	dac13c15 	stw	r11,1264(sp)
 800428c:	db012a17 	ldw	r12,1192(sp)
 8004290:	60800007 	ldb	r2,0(r12)
 8004294:	1000df26 	beq	r2,zero,8004614 <___vfprintf_internal_r+0x47c>
 8004298:	00c00944 	movi	r3,37
 800429c:	10c0dd26 	beq	r2,r3,8004614 <___vfprintf_internal_r+0x47c>
 80042a0:	6021883a 	mov	r16,r12
 80042a4:	00000106 	br	80042ac <___vfprintf_internal_r+0x114>
 80042a8:	10c08426 	beq	r2,r3,80044bc <___vfprintf_internal_r+0x324>
 80042ac:	84000044 	addi	r16,r16,1
 80042b0:	80800007 	ldb	r2,0(r16)
 80042b4:	103ffc1e 	bne	r2,zero,80042a8 <__ram_exceptions_end+0xf7f84068>
 80042b8:	dac12a17 	ldw	r11,1192(sp)
 80042bc:	82e3c83a 	sub	r17,r16,r11
 80042c0:	88000f26 	beq	r17,zero,8004300 <___vfprintf_internal_r+0x168>
 80042c4:	d8c12017 	ldw	r3,1152(sp)
 80042c8:	d8811f17 	ldw	r2,1148(sp)
 80042cc:	dac12a17 	ldw	r11,1192(sp)
 80042d0:	1c47883a 	add	r3,r3,r17
 80042d4:	10800044 	addi	r2,r2,1
 80042d8:	d8c12015 	stw	r3,1152(sp)
 80042dc:	42c00015 	stw	r11,0(r8)
 80042e0:	44400115 	stw	r17,4(r8)
 80042e4:	d8811f15 	stw	r2,1148(sp)
 80042e8:	00c001c4 	movi	r3,7
 80042ec:	1880b416 	blt	r3,r2,80045c0 <___vfprintf_internal_r+0x428>
 80042f0:	42000204 	addi	r8,r8,8
 80042f4:	db012f17 	ldw	r12,1212(sp)
 80042f8:	6459883a 	add	r12,r12,r17
 80042fc:	db012f15 	stw	r12,1212(sp)
 8004300:	80800007 	ldb	r2,0(r16)
 8004304:	1000b526 	beq	r2,zero,80045dc <___vfprintf_internal_r+0x444>
 8004308:	80800044 	addi	r2,r16,1
 800430c:	84000047 	ldb	r16,1(r16)
 8004310:	d8012785 	stb	zero,1182(sp)
 8004314:	000d883a 	mov	r6,zero
 8004318:	027fffc4 	movi	r9,-1
 800431c:	d8012e15 	stw	zero,1208(sp)
 8004320:	0023883a 	mov	r17,zero
 8004324:	01001604 	movi	r4,88
 8004328:	01400244 	movi	r5,9
 800432c:	02800a84 	movi	r10,42
 8004330:	01c01b04 	movi	r7,108
 8004334:	10c00044 	addi	r3,r2,1
 8004338:	80bff804 	addi	r2,r16,-32
 800433c:	2082f236 	bltu	r4,r2,8004f08 <___vfprintf_internal_r+0xd70>
 8004340:	100490ba 	slli	r2,r2,2
 8004344:	02c20034 	movhi	r11,2048
 8004348:	5ad0d604 	addi	r11,r11,17240
 800434c:	12c5883a 	add	r2,r2,r11
 8004350:	10800017 	ldw	r2,0(r2)
 8004354:	1000683a 	jmp	r2
 8004358:	08004d50 	cmplti	zero,at,309
 800435c:	08004f08 	cmpgei	zero,at,316
 8004360:	08004f08 	cmpgei	zero,at,316
 8004364:	08004d70 	cmpltui	zero,at,309
 8004368:	08004f08 	cmpgei	zero,at,316
 800436c:	08004f08 	cmpgei	zero,at,316
 8004370:	08004f08 	cmpgei	zero,at,316
 8004374:	08004f08 	cmpgei	zero,at,316
 8004378:	08004f08 	cmpgei	zero,at,316
 800437c:	08004f08 	cmpgei	zero,at,316
 8004380:	08004ecc 	andi	zero,at,315
 8004384:	08004ef8 	rdprs	zero,at,315
 8004388:	08004f08 	cmpgei	zero,at,316
 800438c:	0800461c 	xori	zero,at,280
 8004390:	0800462c 	andhi	zero,at,280
 8004394:	08004f08 	cmpgei	zero,at,316
 8004398:	0800466c 	andhi	zero,at,281
 800439c:	08004b60 	cmpeqi	zero,at,301
 80043a0:	08004b60 	cmpeqi	zero,at,301
 80043a4:	08004b60 	cmpeqi	zero,at,301
 80043a8:	08004b60 	cmpeqi	zero,at,301
 80043ac:	08004b60 	cmpeqi	zero,at,301
 80043b0:	08004b60 	cmpeqi	zero,at,301
 80043b4:	08004b60 	cmpeqi	zero,at,301
 80043b8:	08004b60 	cmpeqi	zero,at,301
 80043bc:	08004b60 	cmpeqi	zero,at,301
 80043c0:	08004f08 	cmpgei	zero,at,316
 80043c4:	08004f08 	cmpgei	zero,at,316
 80043c8:	08004f08 	cmpgei	zero,at,316
 80043cc:	08004f08 	cmpgei	zero,at,316
 80043d0:	08004f08 	cmpgei	zero,at,316
 80043d4:	08004f08 	cmpgei	zero,at,316
 80043d8:	08004f08 	cmpgei	zero,at,316
 80043dc:	08004f08 	cmpgei	zero,at,316
 80043e0:	08004f08 	cmpgei	zero,at,316
 80043e4:	08004f08 	cmpgei	zero,at,316
 80043e8:	08004b94 	ori	zero,at,302
 80043ec:	0800467c 	xorhi	zero,at,281
 80043f0:	08004f08 	cmpgei	zero,at,316
 80043f4:	0800467c 	xorhi	zero,at,281
 80043f8:	08004f08 	cmpgei	zero,at,316
 80043fc:	08004f08 	cmpgei	zero,at,316
 8004400:	08004f08 	cmpgei	zero,at,316
 8004404:	08004f08 	cmpgei	zero,at,316
 8004408:	08004720 	cmpeqi	zero,at,284
 800440c:	08004f08 	cmpgei	zero,at,316
 8004410:	08004f08 	cmpgei	zero,at,316
 8004414:	08004730 	cmpltui	zero,at,284
 8004418:	08004f08 	cmpgei	zero,at,316
 800441c:	08004f08 	cmpgei	zero,at,316
 8004420:	08004f08 	cmpgei	zero,at,316
 8004424:	08004f08 	cmpgei	zero,at,316
 8004428:	08004f08 	cmpgei	zero,at,316
 800442c:	08004b2c 	andhi	zero,at,300
 8004430:	08004f08 	cmpgei	zero,at,316
 8004434:	08004f08 	cmpgei	zero,at,316
 8004438:	08004bdc 	xori	zero,at,303
 800443c:	08004f08 	cmpgei	zero,at,316
 8004440:	08004f08 	cmpgei	zero,at,316
 8004444:	08004f08 	cmpgei	zero,at,316
 8004448:	08004f08 	cmpgei	zero,at,316
 800444c:	08004f08 	cmpgei	zero,at,316
 8004450:	08004f08 	cmpgei	zero,at,316
 8004454:	08004f08 	cmpgei	zero,at,316
 8004458:	08004f08 	cmpgei	zero,at,316
 800445c:	08004f08 	cmpgei	zero,at,316
 8004460:	08004f08 	cmpgei	zero,at,316
 8004464:	08004dd0 	cmplti	zero,at,311
 8004468:	08004d80 	call	8004d8 <__alt_mem_sdram_control-0x77ffb28>
 800446c:	0800467c 	xorhi	zero,at,281
 8004470:	0800467c 	xorhi	zero,at,281
 8004474:	0800467c 	xorhi	zero,at,281
 8004478:	08004dc0 	call	8004dc <__alt_mem_sdram_control-0x77ffb24>
 800447c:	08004d80 	call	8004d8 <__alt_mem_sdram_control-0x77ffb28>
 8004480:	08004f08 	cmpgei	zero,at,316
 8004484:	08004f08 	cmpgei	zero,at,316
 8004488:	08004cc8 	cmpgei	zero,at,307
 800448c:	08004f08 	cmpgei	zero,at,316
 8004490:	08004cdc 	xori	zero,at,307
 8004494:	08004d10 	cmplti	zero,at,308
 8004498:	08004e10 	cmplti	zero,at,312
 800449c:	08004c38 	rdprs	zero,at,304
 80044a0:	08004f08 	cmpgei	zero,at,316
 80044a4:	08004e58 	cmpnei	zero,at,313
 80044a8:	08004f08 	cmpgei	zero,at,316
 80044ac:	08004c48 	cmpgei	zero,at,305
 80044b0:	08004f08 	cmpgei	zero,at,316
 80044b4:	08004f08 	cmpgei	zero,at,316
 80044b8:	08004c88 	cmpgei	zero,at,306
 80044bc:	db012a17 	ldw	r12,1192(sp)
 80044c0:	8323c83a 	sub	r17,r16,r12
 80044c4:	003f7e06 	br	80042c0 <__ram_exceptions_end+0xf7f84080>
 80044c8:	b009883a 	mov	r4,r22
 80044cc:	b80b883a 	mov	r5,r23
 80044d0:	80061b80 	call	80061b8 <__swsetup_r>
 80044d4:	10002d1e 	bne	r2,zero,800458c <___vfprintf_internal_r+0x3f4>
 80044d8:	b8c0030b 	ldhu	r3,12(r23)
 80044dc:	01000284 	movi	r4,10
 80044e0:	1805883a 	mov	r2,r3
 80044e4:	1080068c 	andi	r2,r2,26
 80044e8:	113f551e 	bne	r2,r4,8004240 <__ram_exceptions_end+0xf7f84000>
 80044ec:	b880038b 	ldhu	r2,14(r23)
 80044f0:	113fffcc 	andi	r4,r2,65535
 80044f4:	2120001c 	xori	r4,r4,32768
 80044f8:	21200004 	addi	r4,r4,-32768
 80044fc:	203f5016 	blt	r4,zero,8004240 <__ram_exceptions_end+0xf7f84000>
 8004500:	bac01917 	ldw	r11,100(r23)
 8004504:	ba800717 	ldw	r10,28(r23)
 8004508:	ba400917 	ldw	r9,36(r23)
 800450c:	d9812a17 	ldw	r6,1192(sp)
 8004510:	d9c12d17 	ldw	r7,1204(sp)
 8004514:	02010004 	movi	r8,1024
 8004518:	18ffff4c 	andi	r3,r3,65533
 800451c:	d881078d 	sth	r2,1054(sp)
 8004520:	b009883a 	mov	r4,r22
 8004524:	d8800404 	addi	r2,sp,16
 8004528:	d9410404 	addi	r5,sp,1040
 800452c:	d8c1070d 	sth	r3,1052(sp)
 8004530:	dac11d15 	stw	r11,1140(sp)
 8004534:	da810b15 	stw	r10,1068(sp)
 8004538:	da410d15 	stw	r9,1076(sp)
 800453c:	d8810415 	stw	r2,1040(sp)
 8004540:	d8810815 	stw	r2,1056(sp)
 8004544:	da010615 	stw	r8,1048(sp)
 8004548:	da010915 	stw	r8,1060(sp)
 800454c:	d8010a15 	stw	zero,1064(sp)
 8004550:	80041980 	call	8004198 <___vfprintf_internal_r>
 8004554:	1021883a 	mov	r16,r2
 8004558:	10000416 	blt	r2,zero,800456c <___vfprintf_internal_r+0x3d4>
 800455c:	b009883a 	mov	r4,r22
 8004560:	d9410404 	addi	r5,sp,1040
 8004564:	8007c100 	call	8007c10 <_fflush_r>
 8004568:	1006ee1e 	bne	r2,zero,8006124 <___vfprintf_internal_r+0x1f8c>
 800456c:	d881070b 	ldhu	r2,1052(sp)
 8004570:	1080100c 	andi	r2,r2,64
 8004574:	10000326 	beq	r2,zero,8004584 <___vfprintf_internal_r+0x3ec>
 8004578:	b880030b 	ldhu	r2,12(r23)
 800457c:	10801014 	ori	r2,r2,64
 8004580:	b880030d 	sth	r2,12(r23)
 8004584:	8005883a 	mov	r2,r16
 8004588:	00000106 	br	8004590 <___vfprintf_internal_r+0x3f8>
 800458c:	00bfffc4 	movi	r2,-1
 8004590:	dfc14917 	ldw	ra,1316(sp)
 8004594:	df014817 	ldw	fp,1312(sp)
 8004598:	ddc14717 	ldw	r23,1308(sp)
 800459c:	dd814617 	ldw	r22,1304(sp)
 80045a0:	dd414517 	ldw	r21,1300(sp)
 80045a4:	dd014417 	ldw	r20,1296(sp)
 80045a8:	dcc14317 	ldw	r19,1292(sp)
 80045ac:	dc814217 	ldw	r18,1288(sp)
 80045b0:	dc414117 	ldw	r17,1284(sp)
 80045b4:	dc014017 	ldw	r16,1280(sp)
 80045b8:	dec14a04 	addi	sp,sp,1320
 80045bc:	f800283a 	ret
 80045c0:	b009883a 	mov	r4,r22
 80045c4:	b80b883a 	mov	r5,r23
 80045c8:	d9811e04 	addi	r6,sp,1144
 80045cc:	800b4240 	call	800b424 <__sprint_r>
 80045d0:	1000081e 	bne	r2,zero,80045f4 <___vfprintf_internal_r+0x45c>
 80045d4:	da000404 	addi	r8,sp,16
 80045d8:	003f4606 	br	80042f4 <__ram_exceptions_end+0xf7f840b4>
 80045dc:	d8812017 	ldw	r2,1152(sp)
 80045e0:	10000426 	beq	r2,zero,80045f4 <___vfprintf_internal_r+0x45c>
 80045e4:	b009883a 	mov	r4,r22
 80045e8:	b80b883a 	mov	r5,r23
 80045ec:	d9811e04 	addi	r6,sp,1144
 80045f0:	800b4240 	call	800b424 <__sprint_r>
 80045f4:	b880030b 	ldhu	r2,12(r23)
 80045f8:	1080100c 	andi	r2,r2,64
 80045fc:	103fe31e 	bne	r2,zero,800458c <__ram_exceptions_end+0xf7f8434c>
 8004600:	d8812f17 	ldw	r2,1212(sp)
 8004604:	003fe206 	br	8004590 <__ram_exceptions_end+0xf7f84350>
 8004608:	b009883a 	mov	r4,r22
 800460c:	80081b80 	call	80081b8 <__sinit>
 8004610:	003ef906 	br	80041f8 <__ram_exceptions_end+0xf7f83fb8>
 8004614:	dc012a17 	ldw	r16,1192(sp)
 8004618:	003f3906 	br	8004300 <__ram_exceptions_end+0xf7f840c0>
 800461c:	1805883a 	mov	r2,r3
 8004620:	8c400114 	ori	r17,r17,4
 8004624:	1c000007 	ldb	r16,0(r3)
 8004628:	003f4206 	br	8004334 <__ram_exceptions_end+0xf7f840f4>
 800462c:	1c000007 	ldb	r16,0(r3)
 8004630:	18800044 	addi	r2,r3,1
 8004634:	8286b326 	beq	r16,r10,8006104 <___vfprintf_internal_r+0x1f6c>
 8004638:	82fff404 	addi	r11,r16,-48
 800463c:	1007883a 	mov	r3,r2
 8004640:	0013883a 	mov	r9,zero
 8004644:	2aff3c36 	bltu	r5,r11,8004338 <__ram_exceptions_end+0xf7f840f8>
 8004648:	1c000007 	ldb	r16,0(r3)
 800464c:	4a4002a4 	muli	r9,r9,10
 8004650:	18c00044 	addi	r3,r3,1
 8004654:	5a53883a 	add	r9,r11,r9
 8004658:	82fff404 	addi	r11,r16,-48
 800465c:	2afffa2e 	bgeu	r5,r11,8004648 <__ram_exceptions_end+0xf7f84408>
 8004660:	483f350e 	bge	r9,zero,8004338 <__ram_exceptions_end+0xf7f840f8>
 8004664:	027fffc4 	movi	r9,-1
 8004668:	003f3306 	br	8004338 <__ram_exceptions_end+0xf7f840f8>
 800466c:	8c402014 	ori	r17,r17,128
 8004670:	1805883a 	mov	r2,r3
 8004674:	1c000007 	ldb	r16,0(r3)
 8004678:	003f2e06 	br	8004334 <__ram_exceptions_end+0xf7f840f4>
 800467c:	db012d17 	ldw	r12,1204(sp)
 8004680:	dac12d17 	ldw	r11,1204(sp)
 8004684:	d8c12a15 	stw	r3,1192(sp)
 8004688:	63000017 	ldw	r12,0(r12)
 800468c:	5ac00117 	ldw	r11,4(r11)
 8004690:	d9812785 	stb	r6,1182(sp)
 8004694:	6009883a 	mov	r4,r12
 8004698:	580b883a 	mov	r5,r11
 800469c:	db013715 	stw	r12,1244(sp)
 80046a0:	da013f15 	stw	r8,1276(sp)
 80046a4:	da413e15 	stw	r9,1272(sp)
 80046a8:	dac13915 	stw	r11,1252(sp)
 80046ac:	800b0800 	call	800b080 <__fpclassifyd>
 80046b0:	db012d17 	ldw	r12,1204(sp)
 80046b4:	04800044 	movi	r18,1
 80046b8:	da013f17 	ldw	r8,1276(sp)
 80046bc:	64c00204 	addi	r19,r12,8
 80046c0:	da413e17 	ldw	r9,1272(sp)
 80046c4:	d9013717 	ldw	r4,1244(sp)
 80046c8:	d9413917 	ldw	r5,1252(sp)
 80046cc:	1484581e 	bne	r2,r18,8005830 <___vfprintf_internal_r+0x1698>
 80046d0:	000d883a 	mov	r6,zero
 80046d4:	000f883a 	mov	r7,zero
 80046d8:	800e6440 	call	800e644 <__ledf2>
 80046dc:	da013f17 	ldw	r8,1276(sp)
 80046e0:	1005ef16 	blt	r2,zero,8005ea0 <___vfprintf_internal_r+0x1d08>
 80046e4:	dd412783 	ldbu	r21,1182(sp)
 80046e8:	008011c4 	movi	r2,71
 80046ec:	14053b0e 	bge	r2,r16,8005bdc <___vfprintf_internal_r+0x1a44>
 80046f0:	00c20074 	movhi	r3,2049
 80046f4:	18ca1404 	addi	r3,r3,10320
 80046f8:	d8c13115 	stw	r3,1220(sp)
 80046fc:	02c000c4 	movi	r11,3
 8004700:	00bfdfc4 	movi	r2,-129
 8004704:	dac12b15 	stw	r11,1196(sp)
 8004708:	88a2703a 	and	r17,r17,r2
 800470c:	dcc12d15 	stw	r19,1204(sp)
 8004710:	5825883a 	mov	r18,r11
 8004714:	d8013215 	stw	zero,1224(sp)
 8004718:	d8013415 	stw	zero,1232(sp)
 800471c:	00003206 	br	80047e8 <___vfprintf_internal_r+0x650>
 8004720:	8c400214 	ori	r17,r17,8
 8004724:	1805883a 	mov	r2,r3
 8004728:	1c000007 	ldb	r16,0(r3)
 800472c:	003f0106 	br	8004334 <__ram_exceptions_end+0xf7f840f4>
 8004730:	8c400414 	ori	r17,r17,16
 8004734:	d8c12a15 	stw	r3,1192(sp)
 8004738:	88c0080c 	andi	r3,r17,32
 800473c:	d8812d17 	ldw	r2,1204(sp)
 8004740:	18017726 	beq	r3,zero,8004d20 <___vfprintf_internal_r+0xb88>
 8004744:	db012d17 	ldw	r12,1204(sp)
 8004748:	14c00017 	ldw	r19,0(r2)
 800474c:	17000117 	ldw	fp,4(r2)
 8004750:	63000204 	addi	r12,r12,8
 8004754:	db012d15 	stw	r12,1204(sp)
 8004758:	0005883a 	mov	r2,zero
 800475c:	9f06b03a 	or	r3,r19,fp
 8004760:	d8012785 	stb	zero,1182(sp)
 8004764:	da413215 	stw	r9,1224(sp)
 8004768:	002b883a 	mov	r21,zero
 800476c:	48000216 	blt	r9,zero,8004778 <___vfprintf_internal_r+0x5e0>
 8004770:	013fdfc4 	movi	r4,-129
 8004774:	8922703a 	and	r17,r17,r4
 8004778:	1801ed1e 	bne	r3,zero,8004f30 <___vfprintf_internal_r+0xd98>
 800477c:	4802e026 	beq	r9,zero,8005300 <___vfprintf_internal_r+0x1168>
 8004780:	10803fcc 	andi	r2,r2,255
 8004784:	00c00044 	movi	r3,1
 8004788:	10c20f26 	beq	r2,r3,8004fc8 <___vfprintf_internal_r+0xe30>
 800478c:	00c00084 	movi	r3,2
 8004790:	10c2fd26 	beq	r2,r3,8005388 <___vfprintf_internal_r+0x11f0>
 8004794:	d8c10e04 	addi	r3,sp,1080
 8004798:	9808d0fa 	srli	r4,r19,3
 800479c:	e00a977a 	slli	r5,fp,29
 80047a0:	e038d0fa 	srli	fp,fp,3
 80047a4:	9cc001cc 	andi	r19,r19,7
 80047a8:	98800c04 	addi	r2,r19,48
 80047ac:	18ffffc4 	addi	r3,r3,-1
 80047b0:	2926b03a 	or	r19,r5,r4
 80047b4:	18800005 	stb	r2,0(r3)
 80047b8:	9f08b03a 	or	r4,r19,fp
 80047bc:	203ff61e 	bne	r4,zero,8004798 <__ram_exceptions_end+0xf7f84558>
 80047c0:	8900004c 	andi	r4,r17,1
 80047c4:	d8c13115 	stw	r3,1220(sp)
 80047c8:	2003791e 	bne	r4,zero,80055b0 <___vfprintf_internal_r+0x1418>
 80047cc:	dac12817 	ldw	r11,1184(sp)
 80047d0:	58e5c83a 	sub	r18,r11,r3
 80047d4:	9005883a 	mov	r2,r18
 80047d8:	9240010e 	bge	r18,r9,80047e0 <___vfprintf_internal_r+0x648>
 80047dc:	4805883a 	mov	r2,r9
 80047e0:	d8812b15 	stw	r2,1196(sp)
 80047e4:	d8013415 	stw	zero,1232(sp)
 80047e8:	a8803fcc 	andi	r2,r21,255
 80047ec:	1080201c 	xori	r2,r2,128
 80047f0:	10bfe004 	addi	r2,r2,-128
 80047f4:	10000326 	beq	r2,zero,8004804 <___vfprintf_internal_r+0x66c>
 80047f8:	db012b17 	ldw	r12,1196(sp)
 80047fc:	63000044 	addi	r12,r12,1
 8004800:	db012b15 	stw	r12,1196(sp)
 8004804:	88c0008c 	andi	r3,r17,2
 8004808:	d8c12c15 	stw	r3,1200(sp)
 800480c:	18000326 	beq	r3,zero,800481c <___vfprintf_internal_r+0x684>
 8004810:	dac12b17 	ldw	r11,1196(sp)
 8004814:	5ac00084 	addi	r11,r11,2
 8004818:	dac12b15 	stw	r11,1196(sp)
 800481c:	8b00210c 	andi	r12,r17,132
 8004820:	db013015 	stw	r12,1216(sp)
 8004824:	6001c01e 	bne	r12,zero,8004f28 <___vfprintf_internal_r+0xd90>
 8004828:	dac12e17 	ldw	r11,1208(sp)
 800482c:	db012b17 	ldw	r12,1196(sp)
 8004830:	5b39c83a 	sub	fp,r11,r12
 8004834:	0701bc0e 	bge	zero,fp,8004f28 <___vfprintf_internal_r+0xd90>
 8004838:	02400404 	movi	r9,16
 800483c:	d8c12017 	ldw	r3,1152(sp)
 8004840:	d8811f17 	ldw	r2,1148(sp)
 8004844:	4f05220e 	bge	r9,fp,8005cd0 <___vfprintf_internal_r+0x1b38>
 8004848:	01420074 	movhi	r5,2049
 800484c:	294a2784 	addi	r5,r5,10398
 8004850:	d9413615 	stw	r5,1240(sp)
 8004854:	482b883a 	mov	r21,r9
 8004858:	04c001c4 	movi	r19,7
 800485c:	00000306 	br	800486c <___vfprintf_internal_r+0x6d4>
 8004860:	e73ffc04 	addi	fp,fp,-16
 8004864:	42000204 	addi	r8,r8,8
 8004868:	af00130e 	bge	r21,fp,80048b8 <___vfprintf_internal_r+0x720>
 800486c:	02c20074 	movhi	r11,2049
 8004870:	18c00404 	addi	r3,r3,16
 8004874:	10800044 	addi	r2,r2,1
 8004878:	5aca2784 	addi	r11,r11,10398
 800487c:	42c00015 	stw	r11,0(r8)
 8004880:	45400115 	stw	r21,4(r8)
 8004884:	d8c12015 	stw	r3,1152(sp)
 8004888:	d8811f15 	stw	r2,1148(sp)
 800488c:	98bff40e 	bge	r19,r2,8004860 <__ram_exceptions_end+0xf7f84620>
 8004890:	b009883a 	mov	r4,r22
 8004894:	b80b883a 	mov	r5,r23
 8004898:	d9811e04 	addi	r6,sp,1144
 800489c:	800b4240 	call	800b424 <__sprint_r>
 80048a0:	103f541e 	bne	r2,zero,80045f4 <__ram_exceptions_end+0xf7f843b4>
 80048a4:	e73ffc04 	addi	fp,fp,-16
 80048a8:	d8c12017 	ldw	r3,1152(sp)
 80048ac:	d8811f17 	ldw	r2,1148(sp)
 80048b0:	da000404 	addi	r8,sp,16
 80048b4:	af3fed16 	blt	r21,fp,800486c <__ram_exceptions_end+0xf7f8462c>
 80048b8:	db013617 	ldw	r12,1240(sp)
 80048bc:	e0c7883a 	add	r3,fp,r3
 80048c0:	10800044 	addi	r2,r2,1
 80048c4:	43000015 	stw	r12,0(r8)
 80048c8:	47000115 	stw	fp,4(r8)
 80048cc:	d8c12015 	stw	r3,1152(sp)
 80048d0:	d8811f15 	stw	r2,1148(sp)
 80048d4:	010001c4 	movi	r4,7
 80048d8:	2082f416 	blt	r4,r2,80054ac <___vfprintf_internal_r+0x1314>
 80048dc:	d8812787 	ldb	r2,1182(sp)
 80048e0:	42000204 	addi	r8,r8,8
 80048e4:	10000c26 	beq	r2,zero,8004918 <___vfprintf_internal_r+0x780>
 80048e8:	d8811f17 	ldw	r2,1148(sp)
 80048ec:	d9012784 	addi	r4,sp,1182
 80048f0:	18c00044 	addi	r3,r3,1
 80048f4:	10800044 	addi	r2,r2,1
 80048f8:	41000015 	stw	r4,0(r8)
 80048fc:	01000044 	movi	r4,1
 8004900:	41000115 	stw	r4,4(r8)
 8004904:	d8c12015 	stw	r3,1152(sp)
 8004908:	d8811f15 	stw	r2,1148(sp)
 800490c:	010001c4 	movi	r4,7
 8004910:	20828d16 	blt	r4,r2,8005348 <___vfprintf_internal_r+0x11b0>
 8004914:	42000204 	addi	r8,r8,8
 8004918:	dac12c17 	ldw	r11,1200(sp)
 800491c:	58000c26 	beq	r11,zero,8004950 <___vfprintf_internal_r+0x7b8>
 8004920:	d8811f17 	ldw	r2,1148(sp)
 8004924:	d9012704 	addi	r4,sp,1180
 8004928:	18c00084 	addi	r3,r3,2
 800492c:	10800044 	addi	r2,r2,1
 8004930:	41000015 	stw	r4,0(r8)
 8004934:	01000084 	movi	r4,2
 8004938:	41000115 	stw	r4,4(r8)
 800493c:	d8c12015 	stw	r3,1152(sp)
 8004940:	d8811f15 	stw	r2,1148(sp)
 8004944:	010001c4 	movi	r4,7
 8004948:	20828716 	blt	r4,r2,8005368 <___vfprintf_internal_r+0x11d0>
 800494c:	42000204 	addi	r8,r8,8
 8004950:	db013017 	ldw	r12,1216(sp)
 8004954:	00802004 	movi	r2,128
 8004958:	6081e926 	beq	r12,r2,8005100 <___vfprintf_internal_r+0xf68>
 800495c:	db013217 	ldw	r12,1224(sp)
 8004960:	64abc83a 	sub	r21,r12,r18
 8004964:	0540260e 	bge	zero,r21,8004a00 <___vfprintf_internal_r+0x868>
 8004968:	07000404 	movi	fp,16
 800496c:	d8811f17 	ldw	r2,1148(sp)
 8004970:	e5443d0e 	bge	fp,r21,8005a68 <___vfprintf_internal_r+0x18d0>
 8004974:	01420074 	movhi	r5,2049
 8004978:	294a2384 	addi	r5,r5,10382
 800497c:	d9412c15 	stw	r5,1200(sp)
 8004980:	04c001c4 	movi	r19,7
 8004984:	00000306 	br	8004994 <___vfprintf_internal_r+0x7fc>
 8004988:	ad7ffc04 	addi	r21,r21,-16
 800498c:	42000204 	addi	r8,r8,8
 8004990:	e540110e 	bge	fp,r21,80049d8 <___vfprintf_internal_r+0x840>
 8004994:	18c00404 	addi	r3,r3,16
 8004998:	10800044 	addi	r2,r2,1
 800499c:	45000015 	stw	r20,0(r8)
 80049a0:	47000115 	stw	fp,4(r8)
 80049a4:	d8c12015 	stw	r3,1152(sp)
 80049a8:	d8811f15 	stw	r2,1148(sp)
 80049ac:	98bff60e 	bge	r19,r2,8004988 <__ram_exceptions_end+0xf7f84748>
 80049b0:	b009883a 	mov	r4,r22
 80049b4:	b80b883a 	mov	r5,r23
 80049b8:	d9811e04 	addi	r6,sp,1144
 80049bc:	800b4240 	call	800b424 <__sprint_r>
 80049c0:	103f0c1e 	bne	r2,zero,80045f4 <__ram_exceptions_end+0xf7f843b4>
 80049c4:	ad7ffc04 	addi	r21,r21,-16
 80049c8:	d8c12017 	ldw	r3,1152(sp)
 80049cc:	d8811f17 	ldw	r2,1148(sp)
 80049d0:	da000404 	addi	r8,sp,16
 80049d4:	e57fef16 	blt	fp,r21,8004994 <__ram_exceptions_end+0xf7f84754>
 80049d8:	dac12c17 	ldw	r11,1200(sp)
 80049dc:	1d47883a 	add	r3,r3,r21
 80049e0:	10800044 	addi	r2,r2,1
 80049e4:	42c00015 	stw	r11,0(r8)
 80049e8:	45400115 	stw	r21,4(r8)
 80049ec:	d8c12015 	stw	r3,1152(sp)
 80049f0:	d8811f15 	stw	r2,1148(sp)
 80049f4:	010001c4 	movi	r4,7
 80049f8:	20824b16 	blt	r4,r2,8005328 <___vfprintf_internal_r+0x1190>
 80049fc:	42000204 	addi	r8,r8,8
 8004a00:	8880400c 	andi	r2,r17,256
 8004a04:	1001761e 	bne	r2,zero,8004fe0 <___vfprintf_internal_r+0xe48>
 8004a08:	d8811f17 	ldw	r2,1148(sp)
 8004a0c:	db013117 	ldw	r12,1220(sp)
 8004a10:	1c87883a 	add	r3,r3,r18
 8004a14:	10800044 	addi	r2,r2,1
 8004a18:	43000015 	stw	r12,0(r8)
 8004a1c:	44800115 	stw	r18,4(r8)
 8004a20:	d8c12015 	stw	r3,1152(sp)
 8004a24:	d8811f15 	stw	r2,1148(sp)
 8004a28:	010001c4 	movi	r4,7
 8004a2c:	20822616 	blt	r4,r2,80052c8 <___vfprintf_internal_r+0x1130>
 8004a30:	42000204 	addi	r8,r8,8
 8004a34:	8c40010c 	andi	r17,r17,4
 8004a38:	88003126 	beq	r17,zero,8004b00 <___vfprintf_internal_r+0x968>
 8004a3c:	db012e17 	ldw	r12,1208(sp)
 8004a40:	dac12b17 	ldw	r11,1196(sp)
 8004a44:	62e1c83a 	sub	r16,r12,r11
 8004a48:	04002d0e 	bge	zero,r16,8004b00 <___vfprintf_internal_r+0x968>
 8004a4c:	04400404 	movi	r17,16
 8004a50:	d8811f17 	ldw	r2,1148(sp)
 8004a54:	8c04df0e 	bge	r17,r16,8005dd4 <___vfprintf_internal_r+0x1c3c>
 8004a58:	01020074 	movhi	r4,2049
 8004a5c:	210a2784 	addi	r4,r4,10398
 8004a60:	d9013615 	stw	r4,1240(sp)
 8004a64:	048001c4 	movi	r18,7
 8004a68:	00000306 	br	8004a78 <___vfprintf_internal_r+0x8e0>
 8004a6c:	843ffc04 	addi	r16,r16,-16
 8004a70:	42000204 	addi	r8,r8,8
 8004a74:	8c00130e 	bge	r17,r16,8004ac4 <___vfprintf_internal_r+0x92c>
 8004a78:	01420074 	movhi	r5,2049
 8004a7c:	18c00404 	addi	r3,r3,16
 8004a80:	10800044 	addi	r2,r2,1
 8004a84:	294a2784 	addi	r5,r5,10398
 8004a88:	41400015 	stw	r5,0(r8)
 8004a8c:	44400115 	stw	r17,4(r8)
 8004a90:	d8c12015 	stw	r3,1152(sp)
 8004a94:	d8811f15 	stw	r2,1148(sp)
 8004a98:	90bff40e 	bge	r18,r2,8004a6c <__ram_exceptions_end+0xf7f8482c>
 8004a9c:	b009883a 	mov	r4,r22
 8004aa0:	b80b883a 	mov	r5,r23
 8004aa4:	d9811e04 	addi	r6,sp,1144
 8004aa8:	800b4240 	call	800b424 <__sprint_r>
